Archive member included to satisfy reference by file (symbol)

..\..\platform\libs\libplatform.a(audio.o)
                              Output\obj\projects\standard\functions\func_lowpwr.o (adpll_init)
..\..\platform\libs\libplatform.a(dac.o)
                              Output\obj\projects\standard\port\port_init.o (dac_cb_init)
..\..\platform\libs\libplatform.a(gpdma.o)
                              Output\obj\platform\bsp\bsp_music.o (dac_gpdma_reset)
..\..\platform\libs\libplatform.a(s_dac.o)
                              ..\..\platform\libs\libplatform.a(dac.o) (aux_dnr_voice_maxpow)
..\..\platform\libs\libplatform.a(cm.o)
                              Output\obj\platform\bsp\bsp_param.o (cm_sync)
..\..\platform\libs\libplatform.a(os_flash.o)
                              ..\..\platform\libs\libplatform.a(cm.o) (os_spiflash_read)
..\..\platform\libs\libplatform.a(xcfg.o)
                              Output\obj\projects\standard\port\port_init.o (xcfg_init)
..\..\platform\libs\libplatform.a(main.o)
                              Output\obj\platform\bsp\bsp_ext_dump.o (delay_5ms)
..\..\platform\libs\libplatform.a(codecs_pcm.o)
                              Output\obj\platform\bsp\bsp_music.o (lsbc_dec_pcm_out_cb_do)
..\..\platform\libs\libplatform.a(music.o)
                              Output\obj\platform\bsp\bsp_music.o (music_cb_reset)
..\..\platform\libs\libplatform.a(music_res.o)
                              ..\..\platform\libs\libplatform.a(music.o) (esbc_spi_stream_read)
..\..\platform\libs\libplatform.a(gpio.o)
                              Output\obj\projects\standard\port\port_key.o (gpio_cfg_init)
..\..\platform\libs\libplatform.a(key.o)
                              Output\obj\platform\modules\key\key_scan.o (key_var_init)
..\..\platform\libs\libplatform.a(pmu.o)
                              Output\obj\platform\modules\key\key_scan.o (getcfg_vddio_val_ofs)
..\..\platform\libs\libplatform.a(saradc.o)
                              Output\obj\platform\modules\key\key_scan.o (saradc_init)
..\..\platform\libs\libplatform.a(reset.o)
                              ..\..\platform\libs\libplatform.a(main.o) (load_cache_fix)
..\..\platform\libs\libplatform.a(buffer.o)
                              ..\..\platform\libs\libplatform.a(codecs_pcm.o) (circular_buf_read)
..\..\platform\libs\libplatform.a(debug.o)
                              ..\..\platform\libs\libplatform.a(main.o) (debug_set)
..\..\platform\libs\libplatform.a(interrupt.o)
                              Output\obj\platform\bsp\bsp_dac.o (tick_get)
..\..\platform\libs\libplatform.a(s_sys.o)
                              ..\..\platform\libs\libplatform.a(music.o) (s_clip16)
..\..\platform\libs\libplatform.a(sys.o)
                              Output\obj\projects\standard\main.o (sys_rst_init)
..\..\platform\libs\libplatform.a(sys_clk.o)
                              Output\obj\platform\bsp\bsp_music.o (set_sys_clk)
..\..\platform\libs\libplatform.a(voltage_trim.o)
                              ..\..\platform\libs\libplatform.a(main.o) (voltage_trim_value_init)
..\..\platform\libs\libplatform.a(weak_symbol.o)
                              ..\..\platform\libs\libplatform.a(music.o) (stream_seek)
..\..\platform\libs\libplatform.a(sd_api.o)
                              ..\..\platform\libs\libplatform.a(interrupt.o) (sdctl_isr)
..\..\platform\libs\libdrivers.a(midi_ctrl.o)
                              ..\..\platform\libs\libplatform.a(interrupt.o) (midi_isr)
..\..\platform\libs\libdrivers.a(midi_sf.o)
                              ..\..\platform\libs\libplatform.a(main.o) (msf_compiler)
..\..\platform\libs\libdrivers.a(midi_synth.o)
                              ..\..\platform\libs\libdrivers.a(midi_sf.o) (msf_velToBinabels)
..\..\platform\libs\libdrivers.a(sd.o)
                              ..\..\platform\libs\libplatform.a(sd_api.o) (sd_read_wait)
..\..\platform\libs\libdrivers.a(midi_dec.o)
                              ..\..\platform\libs\libdrivers.a(midi_synth.o) (vmidi_reset_decoder_state)
..\..\platform\libs\libcodecs.a(aviobuf.o)
                              ..\..\platform\libs\libdrivers.a(midi_synth.o) (avio_buf_init)
..\..\platform\libs\libcodecs.a(codecs_com.o)
                              ..\..\platform\libs\libplatform.a(music_res.o) (music_get_mp3_frame_length)
..\..\platform\libs\libcodecs.a(esbc.o)
                              Output\obj\platform\bsp\bsp_music.o (esbc_res_is_play)
..\..\platform\libs\libcodecs.a(bits.o)
                              ..\..\platform\libs\libcodecs.a(esbc.o) (bits2prm_ld8k)
..\..\platform\libs\libcodecs.a(dec_ld8a.o)
                              ..\..\platform\libs\libcodecs.a(esbc.o) (Init_Decod_ld8a)
..\..\platform\libs\libcodecs.a(lpcfunc.o)
                              ..\..\platform\libs\libcodecs.a(dec_ld8a.o) (Int_qlpc)
..\..\platform\libs\libcodecs.a(lspdec.o)
                              ..\..\platform\libs\libcodecs.a(dec_ld8a.o) (Lsp_decw_reset)
..\..\platform\libs\libcodecs.a(lspgetq.o)
                              ..\..\platform\libs\libcodecs.a(lspdec.o) (Lsp_prev_extract)
..\..\platform\libs\libcodecs.a(post_pro.o)
                              ..\..\platform\libs\libcodecs.a(esbc.o) (Init_Post_Process)
..\..\platform\libs\libcodecs.a(postfilt.o)
                              ..\..\platform\libs\libcodecs.a(esbc.o) (Init_Post_Filter)
..\..\platform\libs\libcodecs.a(s_cod_ld8a.o)
                              ..\..\platform\libs\libcodecs.a(postfilt.o) (s_residu)
..\..\platform\libs\libcodecs.a(s_dec_ld8a.o)
                              ..\..\platform\libs\libcodecs.a(dec_ld8a.o) (s_find_excitation_esbc)
..\..\platform\libs\libcodecs.a(s_post_pro.o)
                              ..\..\platform\libs\libcodecs.a(esbc.o) (s_Post_Process)
..\..\platform\libs\libcodecs.a(s_postfilt.o)
                              ..\..\platform\libs\libcodecs.a(postfilt.o) (s_pit_pst_filt)
..\..\platform\libs\libcodecs.a(s_pred_lt3.o)
                              ..\..\platform\libs\libcodecs.a(dec_ld8a.o) (s_Pred_lt3)
..\..\platform\libs\libcodecs.a(tab_ld8a.o)
                              ..\..\platform\libs\libcodecs.a(lspdec.o) (freq_prev_reset)
..\..\platform\libs\libcodecs.a(util.o)
                              ..\..\platform\libs\libcodecs.a(dec_ld8a.o) (Random)
..\..\platform\libs\libcodecs.a(lsbc.o)
                              ..\..\platform\libs\libplatform.a(music.o) (lsbc_dec_init)
..\..\platform\libs\libcodecs.a(lsbcdeci.o)
                              ..\..\platform\libs\libcodecs.a(lsbc.o) (ff_lsbc_init)
..\..\platform\libs\libcodecs.a(lsbcfixed.o)
                              ..\..\platform\libs\libcodecs.a(lsbcdeci.o) (cos_pi_n)
..\..\platform\libs\libcodecs.a(mdct.o)
                              ..\..\platform\libs\libcodecs.a(lsbcdeci.o) (ff_imdct_calc)
..\..\platform\libs\libcodecs.a(s_imdct.o)
                              ..\..\platform\libs\libcodecs.a(mdct.o) (ff_imdct_calc_s)
..\..\platform\libs\libcodecs.a(s_wmadec.o)
                              ..\..\platform\libs\libcodecs.a(lsbcdeci.o) (__ashldi3)
..\..\platform\libs\libcodecs.a(windows.o)
                              ..\..\platform\libs\libcodecs.a(lsbcdeci.o) (lsbc_window)
..\..\platform\libs\libcodecs.a(layer3.o)
                              ..\..\platform\libs\libplatform.a(codecs_pcm.o) (mad_xr_temp)
..\..\platform\libs\libcodecs.a(mp3_dec.o)
                              ..\..\platform\libs\libplatform.a(music.o) (mp3_get_total_time)
..\..\platform\libs\libcodecs.a(s_layer3.o)
                              ..\..\platform\libs\libcodecs.a(layer3.o) (III_aliasreduce)
..\..\platform\libs\libcodecs.a(synth.o)
                              ..\..\platform\libs\libcodecs.a(mp3_dec.o) (mad_synth_init)
..\..\platform\libs\libcodecs.a(wavdec.o)
                              ..\..\platform\libs\libplatform.a(music.o) (wav_dec_init)
..\..\platform\libs\libcodecs.a(codec.o)
                              ..\..\platform\libs\libcodecs.a(mp3_dec.o) (mp3_get_cbr_total_time)
..\..\platform\libs\libcodecs.a(cod_ld8a.o)
                              ..\..\platform\libs\libcodecs.a(s_cod_ld8a.o) (syn_tmp)
..\..\platform\libs\libcodecs.a(de_acelp.o)
                              ..\..\platform\libs\libcodecs.a(dec_ld8a.o) (Decod_ACELP)
..\..\platform\libs\libcodecs.a(dec_gain.o)
                              ..\..\platform\libs\libcodecs.a(dec_ld8a.o) (Dec_gain)
..\..\platform\libs\libcodecs.a(dec_lag3.o)
                              ..\..\platform\libs\libcodecs.a(dec_ld8a.o) (Dec_lag3)
..\..\platform\libs\libcodecs.a(dspfunc.o)
                              ..\..\platform\libs\libcodecs.a(postfilt.o) (Inv_sqrt)
..\..\platform\libs\libcodecs.a(gainpred.o)
                              ..\..\platform\libs\libcodecs.a(dec_gain.o) (Gain_predict)
..\..\platform\libs\libcodecs.a(asf.o)
                              ..\..\platform\libs\libcodecs.a(lsbc.o) (asf_read_packet)
..\..\platform\libs\libcodecs.a(bitstream.o)
                              ..\..\platform\libs\libcodecs.a(lsbc.o) (init_lsbc_get_bits)
..\..\platform\libs\libcodecs.a(lsbc_huffman.o)
                              ..\..\platform\libs\libcodecs.a(lsbcdeci.o) (lsbc_huffman_dec)
..\..\platform\libs\libcodecs.a(s_windows.o)
                              ..\..\platform\libs\libcodecs.a(windows.o) (lsbc_window_s)
..\..\platform\libs\libcodecs.a(bit.o)
                              ..\..\platform\libs\libcodecs.a(mp3_dec.o) (mp3_stream_bit_init)
..\..\platform\libs\libcodecs.a(frame.o)
                              ..\..\platform\libs\libcodecs.a(mp3_dec.o) (mad_frame_finish)
..\..\platform\libs\libcodecs.a(huffman.o)
                              ..\..\platform\libs\libcodecs.a(layer3.o) (mad_huff_pair_table)
..\..\platform\libs\libcodecs.a(voice_changer_fixed.o)
                              ..\..\platform\libs\libcodecs.a(wavdec.o) (pitch_change_init)
..\..\platform\libs\libcodecs.a(adpcmdec.o)
                              ..\..\platform\libs\libcodecs.a(wavdec.o) (adpcm_res_dec_process)
..\..\platform\libs\libcodecs.a(s_voice_changer.o)
                              ..\..\platform\libs\libcodecs.a(voice_changer_fixed.o) (vcf_corr_process_s)

Allocating common symbols
Common symbol       size              file

pwrkey_detect_flag  0x4               Output\obj\projects\standard\plugin\plugin.o
RX_BUF              0x8               Output\obj\platform\bsp\bsp_ext_dump.o
dac_dvol_table      0x4               Output\obj\platform\bsp\bsp_dac.o
soft_fade           0x6               Output\obj\platform\bsp\bsp_dac.o
xcfg_cb             0x20              Output\obj\platform\bsp\bsp_sys.o

Discarded input sections

 .text          0x0000000000000000        0x0 Output\obj\platform\bsp\bsp_clk.o
 .data          0x0000000000000000        0x0 Output\obj\platform\bsp\bsp_clk.o
 .bss           0x0000000000000000        0x0 Output\obj\platform\bsp\bsp_clk.o
 .text          0x0000000000000000        0x0 Output\obj\platform\bsp\bsp_cm.o
 .data          0x0000000000000000        0x0 Output\obj\platform\bsp\bsp_cm.o
 .bss           0x0000000000000000        0x0 Output\obj\platform\bsp\bsp_cm.o
 .text          0x0000000000000000        0x0 Output\obj\platform\bsp\bsp_dac.o
 .data          0x0000000000000000        0x0 Output\obj\platform\bsp\bsp_dac.o
 .bss           0x0000000000000000        0x0 Output\obj\platform\bsp\bsp_dac.o
 .text.dac      0x0000000000000000       0x5a Output\obj\platform\bsp\bsp_dac.o
 .text.dac.vtbl
                0x0000000000000000       0x2e Output\obj\platform\bsp\bsp_dac.o
 .text.set_soft_fade_in
                0x0000000000000000       0x18 Output\obj\platform\bsp\bsp_dac.o
 .text.set_soft_fade_out
                0x0000000000000000       0x20 Output\obj\platform\bsp\bsp_dac.o
 .text.soft_fade_out_wait
                0x0000000000000000       0xa4 Output\obj\platform\bsp\bsp_dac.o
 .rodata.soft_fade_out_wait.str1.4
                0x0000000000000000       0x2f Output\obj\platform\bsp\bsp_dac.o
 .sbss.fadeStepTime.6164
                0x0000000000000000        0x4 Output\obj\platform\bsp\bsp_dac.o
 .text          0x0000000000000000        0x0 Output\obj\platform\bsp\bsp_ext_dump.o
 .data          0x0000000000000000        0x0 Output\obj\platform\bsp\bsp_ext_dump.o
 .bss           0x0000000000000000        0x0 Output\obj\platform\bsp\bsp_ext_dump.o
 .com_text.dumpbuf_test
                0x0000000000000000       0x36 Output\obj\platform\bsp\bsp_ext_dump.o
 .text.dumpbuf  0x0000000000000000      0x156 Output\obj\platform\bsp\bsp_ext_dump.o
 .com_text.dumpbuf
                0x0000000000000000      0x104 Output\obj\platform\bsp\bsp_ext_dump.o
 .text.huart_module_init
                0x0000000000000000       0xf0 Output\obj\platform\bsp\bsp_ext_dump.o
 .text.dumphuart_io_test
                0x0000000000000000       0x88 Output\obj\platform\bsp\bsp_ext_dump.o
 .text.dump_buf_test
                0x0000000000000000       0x76 Output\obj\platform\bsp\bsp_ext_dump.o
 .text.huart_dump_init
                0x0000000000000000       0x3e Output\obj\platform\bsp\bsp_ext_dump.o
 .bss.dump      0x0000000000000000       0x1c Output\obj\platform\bsp\bsp_ext_dump.o
 .buf.huart_dump
                0x0000000000000000      0x1aa Output\obj\platform\bsp\bsp_ext_dump.o
 .com_text.dumpbuf.cststr
                0x0000000000000000       0x19 Output\obj\platform\bsp\bsp_ext_dump.o
 .data.sinetbl_test
                0x0000000000000000      0x100 Output\obj\platform\bsp\bsp_ext_dump.o
 .rodata.dumpbuf.str1.4
                0x0000000000000000       0x99 Output\obj\platform\bsp\bsp_ext_dump.o
 .sdata         0x0000000000000000        0x8 Output\obj\platform\bsp\bsp_ext_dump.o
 .sdata.buf_first_kick.6190
                0x0000000000000000        0x2 Output\obj\platform\bsp\bsp_ext_dump.o
 .comment       0x0000000000000000       0x12 Output\obj\platform\bsp\bsp_ext_dump.o
 COMMON         0x0000000000000000        0x8 Output\obj\platform\bsp\bsp_ext_dump.o
 .text          0x0000000000000000        0x0 Output\obj\platform\bsp\bsp_freqdet.o
 .data          0x0000000000000000        0x0 Output\obj\platform\bsp\bsp_freqdet.o
 .bss           0x0000000000000000        0x0 Output\obj\platform\bsp\bsp_freqdet.o
 .comment       0x0000000000000000       0x12 Output\obj\platform\bsp\bsp_freqdet.o
 .text          0x0000000000000000        0x0 Output\obj\platform\bsp\bsp_fs.o
 .data          0x0000000000000000        0x0 Output\obj\platform\bsp\bsp_fs.o
 .bss           0x0000000000000000        0x0 Output\obj\platform\bsp\bsp_fs.o
 .comment       0x0000000000000000       0x12 Output\obj\platform\bsp\bsp_fs.o
 .text          0x0000000000000000        0x0 Output\obj\platform\bsp\bsp_huart.o
 .data          0x0000000000000000        0x0 Output\obj\platform\bsp\bsp_huart.o
 .bss           0x0000000000000000        0x0 Output\obj\platform\bsp\bsp_huart.o
 .text.checksum_calculation
                0x0000000000000000       0x28 Output\obj\platform\bsp\bsp_huart.o
 .comment       0x0000000000000000       0x12 Output\obj\platform\bsp\bsp_huart.o
 .text          0x0000000000000000        0x0 Output\obj\platform\bsp\bsp_i2c.o
 .data          0x0000000000000000        0x0 Output\obj\platform\bsp\bsp_i2c.o
 .bss           0x0000000000000000        0x0 Output\obj\platform\bsp\bsp_i2c.o
 .com_text.i2c  0x0000000000000000        0x2 Output\obj\platform\bsp\bsp_i2c.o
 .comment       0x0000000000000000       0x12 Output\obj\platform\bsp\bsp_i2c.o
 .text          0x0000000000000000        0x0 Output\obj\platform\bsp\bsp_ir.o
 .data          0x0000000000000000        0x0 Output\obj\platform\bsp\bsp_ir.o
 .bss           0x0000000000000000        0x0 Output\obj\platform\bsp\bsp_ir.o
 .comment       0x0000000000000000       0x12 Output\obj\platform\bsp\bsp_ir.o
 .text          0x0000000000000000        0x0 Output\obj\platform\bsp\bsp_lfs.o
 .data          0x0000000000000000        0x0 Output\obj\platform\bsp\bsp_lfs.o
 .bss           0x0000000000000000        0x0 Output\obj\platform\bsp\bsp_lfs.o
 .comment       0x0000000000000000       0x12 Output\obj\platform\bsp\bsp_lfs.o
 .text          0x0000000000000000        0x0 Output\obj\platform\bsp\bsp_music.o
 .data          0x0000000000000000        0x0 Output\obj\platform\bsp\bsp_music.o
 .bss           0x0000000000000000        0x0 Output\obj\platform\bsp\bsp_music.o
 .text.get_msc_layer_mode
                0x0000000000000000       0x16 Output\obj\platform\bsp\bsp_music.o
 .text.layer_play_check
                0x0000000000000000       0x14 Output\obj\platform\bsp\bsp_music.o
 .text.music_decode
                0x0000000000000000       0xb4 Output\obj\platform\bsp\bsp_music.o
 .text.mp3_res_play_do
                0x0000000000000000       0xa4 Output\obj\platform\bsp\bsp_music.o
 .text.mp3_res_play
                0x0000000000000000       0x42 Output\obj\platform\bsp\bsp_music.o
 .text.vmp3_res_play_do
                0x0000000000000000       0xa4 Output\obj\platform\bsp\bsp_music.o
 .text.vmp3_res_play
                0x0000000000000000       0x42 Output\obj\platform\bsp\bsp_music.o
 .text.esbc_res_play_do
                0x0000000000000000       0xb8 Output\obj\platform\bsp\bsp_music.o
 .text.esbc_res_play
                0x0000000000000000       0x42 Output\obj\platform\bsp\bsp_music.o
 .text.wav_res_play_do
                0x0000000000000000       0x98 Output\obj\platform\bsp\bsp_music.o
 .text.wav_res_play
                0x0000000000000000       0x46 Output\obj\platform\bsp\bsp_music.o
 .text.lsbc_res_play_do
                0x0000000000000000       0xb0 Output\obj\platform\bsp\bsp_music.o
 .text.lsbc_res_play
                0x0000000000000000       0x40 Output\obj\platform\bsp\bsp_music.o
 .text.vmp3_song_play
                0x0000000000000000       0x34 Output\obj\platform\bsp\bsp_music.o
 .text.esbc_song_play
                0x0000000000000000       0x48 Output\obj\platform\bsp\bsp_music.o
 .text.lsbc_song_play
                0x0000000000000000       0x34 Output\obj\platform\bsp\bsp_music.o
 .text          0x0000000000000000        0x0 Output\obj\platform\bsp\bsp_param.o
 .data          0x0000000000000000        0x0 Output\obj\platform\bsp\bsp_param.o
 .bss           0x0000000000000000        0x0 Output\obj\platform\bsp\bsp_param.o
 .text          0x0000000000000000        0x0 Output\obj\platform\bsp\bsp_rtc.o
 .data          0x0000000000000000        0x0 Output\obj\platform\bsp\bsp_rtc.o
 .bss           0x0000000000000000        0x0 Output\obj\platform\bsp\bsp_rtc.o
 .text.rtc_prescale_get
                0x0000000000000000       0x10 Output\obj\platform\bsp\bsp_rtc.o
 .text.rtc_counter_get
                0x0000000000000000        0x8 Output\obj\platform\bsp\bsp_rtc.o
 .text.rtc_counter_set
                0x0000000000000000        0x8 Output\obj\platform\bsp\bsp_rtc.o
 .text          0x0000000000000000        0x0 Output\obj\platform\bsp\bsp_saradc.o
 .data          0x0000000000000000        0x0 Output\obj\platform\bsp\bsp_saradc.o
 .bss           0x0000000000000000        0x0 Output\obj\platform\bsp\bsp_saradc.o
 .text.e_saradc_init
                0x0000000000000000       0x7e Output\obj\platform\bsp\bsp_saradc.o
 .text.e_get_adc_val_test
                0x0000000000000000        0x8 Output\obj\platform\bsp\bsp_saradc.o
 .text.e_get_saradc_data
                0x0000000000000000       0x68 Output\obj\platform\bsp\bsp_saradc.o
 .text.e_saradc_proc
                0x0000000000000000       0xa8 Output\obj\platform\bsp\bsp_saradc.o
 .rodata.__func__.6137
                0x0000000000000000        0xe Output\obj\platform\bsp\bsp_saradc.o
 .rodata.e_saradc_proc.str1.4
                0x0000000000000000       0x2b Output\obj\platform\bsp\bsp_saradc.o
 .sbss.adc_ch.6140
                0x0000000000000000        0x2 Output\obj\platform\bsp\bsp_saradc.o
 .sbss.sfr1     0x0000000000000000        0x4 Output\obj\platform\bsp\bsp_saradc.o
 .comment       0x0000000000000000       0x12 Output\obj\platform\bsp\bsp_saradc.o
 .text          0x0000000000000000        0x0 Output\obj\platform\bsp\bsp_spi_audio.o
 .data          0x0000000000000000        0x0 Output\obj\platform\bsp\bsp_spi_audio.o
 .bss           0x0000000000000000        0x0 Output\obj\platform\bsp\bsp_spi_audio.o
 .comment       0x0000000000000000       0x12 Output\obj\platform\bsp\bsp_spi_audio.o
 .text          0x0000000000000000        0x0 Output\obj\platform\bsp\bsp_sys.o
 .data          0x0000000000000000        0x0 Output\obj\platform\bsp\bsp_sys.o
 .bss           0x0000000000000000        0x0 Output\obj\platform\bsp\bsp_sys.o
 .text.bsp.sys  0x0000000000000000       0x28 Output\obj\platform\bsp\bsp_sys.o
 .text.mclr_l_init
                0x0000000000000000       0x42 Output\obj\platform\bsp\bsp_sys.o
 .text.mclr_10s_rst_io_init
                0x0000000000000000       0x58 Output\obj\platform\bsp\bsp_sys.o
 .text          0x0000000000000000        0x0 Output\obj\platform\bsp\bsp_timer.o
 .data          0x0000000000000000        0x0 Output\obj\platform\bsp\bsp_timer.o
 .bss           0x0000000000000000        0x0 Output\obj\platform\bsp\bsp_timer.o
 .comment       0x0000000000000000       0x12 Output\obj\platform\bsp\bsp_timer.o
 .text          0x0000000000000000        0x0 Output\obj\platform\bsp\bsp_uart.o
 .data          0x0000000000000000        0x0 Output\obj\platform\bsp\bsp_uart.o
 .bss           0x0000000000000000        0x0 Output\obj\platform\bsp\bsp_uart.o
 .comment       0x0000000000000000       0x12 Output\obj\platform\bsp\bsp_uart.o
 .text          0x0000000000000000        0x0 Output\obj\platform\bsp\bsp_user_music.o
 .data          0x0000000000000000        0x0 Output\obj\platform\bsp\bsp_user_music.o
 .bss           0x0000000000000000        0x0 Output\obj\platform\bsp\bsp_user_music.o
 .comment       0x0000000000000000       0x12 Output\obj\platform\bsp\bsp_user_music.o
 .text          0x0000000000000000        0x0 Output\obj\platform\gui\gui.o
 .data          0x0000000000000000        0x0 Output\obj\platform\gui\gui.o
 .bss           0x0000000000000000        0x0 Output\obj\platform\gui\gui.o
 .text.gui_box_flicker_set
                0x0000000000000000        0x2 Output\obj\platform\gui\gui.o
 .comment       0x0000000000000000       0x12 Output\obj\platform\gui\gui.o
 .text          0x0000000000000000        0x0 Output\obj\platform\gui\ledseg\ledseg_7p7s.o
 .data          0x0000000000000000        0x0 Output\obj\platform\gui\ledseg\ledseg_7p7s.o
 .bss           0x0000000000000000        0x0 Output\obj\platform\gui\ledseg\ledseg_7p7s.o
 .comment       0x0000000000000000       0x12 Output\obj\platform\gui\ledseg\ledseg_7p7s.o
 .text          0x0000000000000000        0x0 Output\obj\platform\gui\ledseg\ledseg_common.o
 .data          0x0000000000000000        0x0 Output\obj\platform\gui\ledseg\ledseg_common.o
 .bss           0x0000000000000000        0x0 Output\obj\platform\gui\ledseg\ledseg_common.o
 .comment       0x0000000000000000       0x12 Output\obj\platform\gui\ledseg\ledseg_common.o
 .text          0x0000000000000000        0x0 Output\obj\platform\libs\strong_symbol.o
 .data          0x0000000000000000        0x0 Output\obj\platform\libs\strong_symbol.o
 .bss           0x0000000000000000        0x0 Output\obj\platform\libs\strong_symbol.o
 .text.spi1_send_buf_do
                0x0000000000000000        0x2 Output\obj\platform\libs\strong_symbol.o
 .text.exspiflash_wav_num_kick
                0x0000000000000000        0x2 Output\obj\platform\libs\strong_symbol.o
 .text.dac_pin_gpio_init
                0x0000000000000000        0x2 Output\obj\platform\libs\strong_symbol.o
 .text.dac_voutp_set
                0x0000000000000000        0x2 Output\obj\platform\libs\strong_symbol.o
 .text.dac_voutn_set
                0x0000000000000000        0x2 Output\obj\platform\libs\strong_symbol.o
 .text.dac_io_map
                0x0000000000000000        0x2 Output\obj\platform\libs\strong_symbol.o
 .text.spiflash_vsbc_loop_skip_start_size
                0x0000000000000000        0x4 Output\obj\platform\libs\strong_symbol.o
 .text.spiflash_vsbc_loop_skip_end_size
                0x0000000000000000        0x4 Output\obj\platform\libs\strong_symbol.o
 .text.spiflash_vsbc_skip_start_size
                0x0000000000000000        0x4 Output\obj\platform\libs\strong_symbol.o
 .text.spiflash_vsbc_skip_end_size
                0x0000000000000000        0x4 Output\obj\platform\libs\strong_symbol.o
 .text.spiflash_read_kick
                0x0000000000000000        0x4 Output\obj\platform\libs\strong_symbol.o
 .text.spiflash_read_wait
                0x0000000000000000        0x4 Output\obj\platform\libs\strong_symbol.o
 .text.vmidi_song_play
                0x0000000000000000        0x2 Output\obj\platform\libs\strong_symbol.o
 .text.midi_song_play
                0x0000000000000000        0x2 Output\obj\platform\libs\strong_symbol.o
 .text.get_midi_dec_sta
                0x0000000000000000        0x4 Output\obj\platform\libs\strong_symbol.o
 .text.midi_control
                0x0000000000000000        0x2 Output\obj\platform\libs\strong_symbol.o
 .text.dcache_init_4addr
                0x0000000000000000        0x2 Output\obj\platform\libs\strong_symbol.o
 .text.dac_set_eq_by_res
                0x0000000000000000        0x4 Output\obj\platform\libs\strong_symbol.o
 .text.get_midi_rec_en
                0x0000000000000000        0x4 Output\obj\platform\libs\strong_symbol.o
 .text.get_okon_key_cnt
                0x0000000000000000        0x4 Output\obj\platform\libs\strong_symbol.o
 .text.reset_okon_key_cnt
                0x0000000000000000        0x2 Output\obj\platform\libs\strong_symbol.o
 .text.lsbc_res_loop_play_kick
                0x0000000000000000        0x4 Output\obj\platform\libs\strong_symbol.o
 .text.get_lsbc_total_frame
                0x0000000000000000        0x4 Output\obj\platform\libs\strong_symbol.o
 .text.break_point_calculate
                0x0000000000000000        0x4 Output\obj\platform\libs\strong_symbol.o
 .text.drc_v3_init
                0x0000000000000000        0x4 Output\obj\platform\libs\strong_symbol.o
 .text.dac_dnr_out
                0x0000000000000000        0x2 Output\obj\platform\libs\strong_symbol.o
 .text.dac_dnr_in
                0x0000000000000000        0x2 Output\obj\platform\libs\strong_symbol.o
 .text          0x0000000000000000        0x0 Output\obj\platform\modules\fft\fft_proc.o
 .data          0x0000000000000000        0x0 Output\obj\platform\modules\fft\fft_proc.o
 .bss           0x0000000000000000        0x0 Output\obj\platform\modules\fft\fft_proc.o
 .comment       0x0000000000000000       0x12 Output\obj\platform\modules\fft\fft_proc.o
 .text          0x0000000000000000        0x0 Output\obj\platform\modules\fft\fft_table.o
 .data          0x0000000000000000        0x0 Output\obj\platform\modules\fft\fft_table.o
 .bss           0x0000000000000000        0x0 Output\obj\platform\modules\fft\fft_table.o
 .fft_rodata.sqrt
                0x0000000000000000      0x102 Output\obj\platform\modules\fft\fft_table.o
 .comment       0x0000000000000000       0x12 Output\obj\platform\modules\fft\fft_table.o
 .text          0x0000000000000000        0x0 Output\obj\platform\modules\key\key_scan.o
 .data          0x0000000000000000        0x0 Output\obj\platform\modules\key\key_scan.o
 .bss           0x0000000000000000        0x0 Output\obj\platform\modules\key\key_scan.o
 .text          0x0000000000000000        0x0 Output\obj\platform\modules\key\matrix_key.o
 .data          0x0000000000000000        0x0 Output\obj\platform\modules\key\matrix_key.o
 .bss           0x0000000000000000        0x0 Output\obj\platform\modules\key\matrix_key.o
 .comment       0x0000000000000000       0x12 Output\obj\platform\modules\key\matrix_key.o
 .text          0x0000000000000000        0x0 Output\obj\platform\modules\key\tkey.o
 .data          0x0000000000000000        0x0 Output\obj\platform\modules\key\tkey.o
 .bss           0x0000000000000000        0x0 Output\obj\platform\modules\key\tkey.o
 .comment       0x0000000000000000       0x12 Output\obj\platform\modules\key\tkey.o
 .text          0x0000000000000000        0x0 Output\obj\platform\modules\led\led.o
 .data          0x0000000000000000        0x0 Output\obj\platform\modules\led\led.o
 .bss           0x0000000000000000        0x0 Output\obj\platform\modules\led\led.o
 .comment       0x0000000000000000       0x12 Output\obj\platform\modules\led\led.o
 .text          0x0000000000000000        0x0 Output\obj\platform\modules\led\spi_led.o
 .data          0x0000000000000000        0x0 Output\obj\platform\modules\led\spi_led.o
 .bss           0x0000000000000000        0x0 Output\obj\platform\modules\led\spi_led.o
 .comment       0x0000000000000000       0x12 Output\obj\platform\modules\led\spi_led.o
 .text          0x0000000000000000        0x0 Output\obj\platform\modules\midi\midi.o
 .data          0x0000000000000000        0x0 Output\obj\platform\modules\midi\midi.o
 .bss           0x0000000000000000        0x0 Output\obj\platform\modules\midi\midi.o
 .comment       0x0000000000000000       0x12 Output\obj\platform\modules\midi\midi.o
 .text          0x0000000000000000        0x0 Output\obj\platform\modules\midi\midi_keyboard.o
 .data          0x0000000000000000        0x0 Output\obj\platform\modules\midi\midi_keyboard.o
 .bss           0x0000000000000000        0x0 Output\obj\platform\modules\midi\midi_keyboard.o
 .comment       0x0000000000000000       0x12 Output\obj\platform\modules\midi\midi_keyboard.o
 .text          0x0000000000000000        0x0 Output\obj\platform\modules\midi\midi_metronome.o
 .data          0x0000000000000000        0x0 Output\obj\platform\modules\midi\midi_metronome.o
 .bss           0x0000000000000000        0x0 Output\obj\platform\modules\midi\midi_metronome.o
 .comment       0x0000000000000000       0x12 Output\obj\platform\modules\midi\midi_metronome.o
 .text          0x0000000000000000        0x0 Output\obj\platform\modules\midi\midi_rec.o
 .data          0x0000000000000000        0x0 Output\obj\platform\modules\midi\midi_rec.o
 .bss           0x0000000000000000        0x0 Output\obj\platform\modules\midi\midi_rec.o
 .comment       0x0000000000000000       0x12 Output\obj\platform\modules\midi\midi_rec.o
 .text          0x0000000000000000        0x0 Output\obj\platform\modules\midi\midi_song.o
 .data          0x0000000000000000        0x0 Output\obj\platform\modules\midi\midi_song.o
 .bss           0x0000000000000000        0x0 Output\obj\platform\modules\midi\midi_song.o
 .comment       0x0000000000000000       0x12 Output\obj\platform\modules\midi\midi_song.o
 .text          0x0000000000000000        0x0 Output\obj\platform\modules\midi\midi_uart.o
 .data          0x0000000000000000        0x0 Output\obj\platform\modules\midi\midi_uart.o
 .bss           0x0000000000000000        0x0 Output\obj\platform\modules\midi\midi_uart.o
 .comment       0x0000000000000000       0x12 Output\obj\platform\modules\midi\midi_uart.o
 .text          0x0000000000000000        0x0 Output\obj\platform\modules\midi\midi_voice.o
 .data          0x0000000000000000        0x0 Output\obj\platform\modules\midi\midi_voice.o
 .bss           0x0000000000000000        0x0 Output\obj\platform\modules\midi\midi_voice.o
 .comment       0x0000000000000000       0x12 Output\obj\platform\modules\midi\midi_voice.o
 .text          0x0000000000000000        0x0 Output\obj\platform\modules\spiflash\spiflash1.o
 .data          0x0000000000000000        0x0 Output\obj\platform\modules\spiflash\spiflash1.o
 .bss           0x0000000000000000        0x0 Output\obj\platform\modules\spiflash\spiflash1.o
 .text.spiflash0_init
                0x0000000000000000        0x2 Output\obj\platform\modules\spiflash\spiflash1.o
 .text.spiflash_sendbyte
                0x0000000000000000       0x1c Output\obj\platform\modules\spiflash\spiflash1.o
 .text.spiflash_getbyte
                0x0000000000000000       0x2a Output\obj\platform\modules\spiflash\spiflash1.o
 .text.flashcs_dis
                0x0000000000000000        0x8 Output\obj\platform\modules\spiflash\spiflash1.o
 .text.flashcs_en
                0x0000000000000000        0x8 Output\obj\platform\modules\spiflash\spiflash1.o
 .text.spiflash_write_en
                0x0000000000000000       0x2e Output\obj\platform\modules\spiflash\spiflash1.o
 .text.spiflash_readssr
                0x0000000000000000       0x38 Output\obj\platform\modules\spiflash\spiflash1.o
 .text.spiflash0_sendaddr
                0x0000000000000000       0x3c Output\obj\platform\modules\spiflash\spiflash1.o
 .text.spiflash0_id_read
                0x0000000000000000       0x50 Output\obj\platform\modules\spiflash\spiflash1.o
 .text.spiflash_security_erase
                0x0000000000000000       0x44 Output\obj\platform\modules\spiflash\spiflash1.o
 .text.spiflash_security_read
                0x0000000000000000       0x68 Output\obj\platform\modules\spiflash\spiflash1.o
 .text.spiflash_security_write
                0x0000000000000000       0x72 Output\obj\platform\modules\spiflash\spiflash1.o
 .text.spiflash0_read_test
                0x0000000000000000       0x5a Output\obj\platform\modules\spiflash\spiflash1.o
 .text.spiflash_readuid
                0x0000000000000000       0x52 Output\obj\platform\modules\spiflash\spiflash1.o
 .text.flash_uid_read_proc
                0x0000000000000000       0x20 Output\obj\platform\modules\spiflash\spiflash1.o
 .rodata        0x0000000000000000       0x10 Output\obj\platform\modules\spiflash\spiflash1.o
 .comment       0x0000000000000000       0x12 Output\obj\platform\modules\spiflash\spiflash1.o
 .text          0x0000000000000000        0x0 Output\obj\platform\modules\spiflash\spiflash1_music_bin.o
 .data          0x0000000000000000        0x0 Output\obj\platform\modules\spiflash\spiflash1_music_bin.o
 .bss           0x0000000000000000        0x0 Output\obj\platform\modules\spiflash\spiflash1_music_bin.o
 .comment       0x0000000000000000       0x12 Output\obj\platform\modules\spiflash\spiflash1_music_bin.o
 .text          0x0000000000000000        0x0 Output\obj\platform\modules\spilcd\lcd_display.o
 .data          0x0000000000000000        0x0 Output\obj\platform\modules\spilcd\lcd_display.o
 .bss           0x0000000000000000        0x0 Output\obj\platform\modules\spilcd\lcd_display.o
 .comment       0x0000000000000000       0x12 Output\obj\platform\modules\spilcd\lcd_display.o
 .text          0x0000000000000000        0x0 Output\obj\platform\modules\spilcd\pic_tbl.o
 .data          0x0000000000000000        0x0 Output\obj\platform\modules\spilcd\pic_tbl.o
 .bss           0x0000000000000000        0x0 Output\obj\platform\modules\spilcd\pic_tbl.o
 .comment       0x0000000000000000       0x12 Output\obj\platform\modules\spilcd\pic_tbl.o
 .text          0x0000000000000000        0x0 Output\obj\projects\standard\config.o
 .data          0x0000000000000000        0x0 Output\obj\projects\standard\config.o
 .bss           0x0000000000000000        0x0 Output\obj\projects\standard\config.o
 .text.func     0x0000000000000000        0x4 Output\obj\projects\standard\config.o
 .text.get_vddio_voltage
                0x0000000000000000       0x18 Output\obj\projects\standard\config.o
 .rodata.func.table
                0x0000000000000000        0x1 Output\obj\projects\standard\config.o
 .text          0x0000000000000000        0x0 Output\obj\projects\standard\display\display_idle.o
 .data          0x0000000000000000        0x0 Output\obj\projects\standard\display\display_idle.o
 .bss           0x0000000000000000        0x0 Output\obj\projects\standard\display\display_idle.o
 .comment       0x0000000000000000       0x12 Output\obj\projects\standard\display\display_idle.o
 .text          0x0000000000000000        0x0 Output\obj\projects\standard\display\ledseg\display_ledseg.o
 .data          0x0000000000000000        0x0 Output\obj\projects\standard\display\ledseg\display_ledseg.o
 .bss           0x0000000000000000        0x0 Output\obj\projects\standard\display\ledseg\display_ledseg.o
 .comment       0x0000000000000000       0x12 Output\obj\projects\standard\display\ledseg\display_ledseg.o
 .text          0x0000000000000000        0x0 Output\obj\projects\standard\functions\func.o
 .data          0x0000000000000000        0x0 Output\obj\projects\standard\functions\func.o
 .bss           0x0000000000000000        0x0 Output\obj\projects\standard\functions\func.o
 .text.func.msg
                0x0000000000000000       0xe6 Output\obj\projects\standard\functions\func.o
 .text.func     0x0000000000000000       0xee Output\obj\projects\standard\functions\func.o
 .text.seg_display_start
                0x0000000000000000        0xc Output\obj\projects\standard\functions\func.o
 .text.key_scan_start
                0x0000000000000000        0xc Output\obj\projects\standard\functions\func.o
 .text.key_scan_stop
                0x0000000000000000        0xa Output\obj\projects\standard\functions\func.o
 .text          0x0000000000000000        0x0 Output\obj\projects\standard\functions\func_clock.o
 .data          0x0000000000000000        0x0 Output\obj\projects\standard\functions\func_clock.o
 .bss           0x0000000000000000        0x0 Output\obj\projects\standard\functions\func_clock.o
 .comment       0x0000000000000000       0x12 Output\obj\projects\standard\functions\func_clock.o
 .text          0x0000000000000000        0x0 Output\obj\projects\standard\functions\func_exspiflash_music.o
 .data          0x0000000000000000        0x0 Output\obj\projects\standard\functions\func_exspiflash_music.o
 .bss           0x0000000000000000        0x0 Output\obj\projects\standard\functions\func_exspiflash_music.o
 .comment       0x0000000000000000       0x12 Output\obj\projects\standard\functions\func_exspiflash_music.o
 .text          0x0000000000000000        0x0 Output\obj\projects\standard\functions\func_idle.o
 .data          0x0000000000000000        0x0 Output\obj\projects\standard\functions\func_idle.o
 .bss           0x0000000000000000        0x0 Output\obj\projects\standard\functions\func_idle.o
 .text.func.idle
                0x0000000000000000       0x38 Output\obj\projects\standard\functions\func_idle.o
 .comment       0x0000000000000000       0x12 Output\obj\projects\standard\functions\func_idle.o
 .text          0x0000000000000000        0x0 Output\obj\projects\standard\functions\func_lowpwr.o
 .data          0x0000000000000000        0x0 Output\obj\projects\standard\functions\func_lowpwr.o
 .bss           0x0000000000000000        0x0 Output\obj\projects\standard\functions\func_lowpwr.o
 .text.lowpwr.sleep
                0x0000000000000000      0x400 Output\obj\projects\standard\functions\func_lowpwr.o
 .text          0x0000000000000000        0x0 Output\obj\projects\standard\functions\func_music.o
 .data          0x0000000000000000        0x0 Output\obj\projects\standard\functions\func_music.o
 .bss           0x0000000000000000        0x0 Output\obj\projects\standard\functions\func_music.o
 .buf.func.music
                0x0000000000000000       0x1c Output\obj\projects\standard\functions\func_music.o
 .comment       0x0000000000000000       0x12 Output\obj\projects\standard\functions\func_music.o
 .text          0x0000000000000000        0x0 Output\obj\projects\standard\functions\func_uart_upd.o
 .data          0x0000000000000000        0x0 Output\obj\projects\standard\functions\func_uart_upd.o
 .bss           0x0000000000000000        0x0 Output\obj\projects\standard\functions\func_uart_upd.o
 .comment       0x0000000000000000       0x12 Output\obj\projects\standard\functions\func_uart_upd.o
 .text          0x0000000000000000        0x0 Output\obj\projects\standard\functions\func_update.o
 .data          0x0000000000000000        0x0 Output\obj\projects\standard\functions\func_update.o
 .bss           0x0000000000000000        0x0 Output\obj\projects\standard\functions\func_update.o
 .comment       0x0000000000000000       0x12 Output\obj\projects\standard\functions\func_update.o
 .text          0x0000000000000000        0x0 Output\obj\projects\standard\main.o
 .data          0x0000000000000000        0x0 Output\obj\projects\standard\main.o
 .bss           0x0000000000000000        0x0 Output\obj\projects\standard\main.o
 .text.update_complete
                0x0000000000000000       0x32 Output\obj\projects\standard\main.o
 .text          0x0000000000000000        0x0 Output\obj\projects\standard\message\msg_clock.o
 .data          0x0000000000000000        0x0 Output\obj\projects\standard\message\msg_clock.o
 .bss           0x0000000000000000        0x0 Output\obj\projects\standard\message\msg_clock.o
 .comment       0x0000000000000000       0x12 Output\obj\projects\standard\message\msg_clock.o
 .text          0x0000000000000000        0x0 Output\obj\projects\standard\message\msg_exspiflash_music.o
 .data          0x0000000000000000        0x0 Output\obj\projects\standard\message\msg_exspiflash_music.o
 .bss           0x0000000000000000        0x0 Output\obj\projects\standard\message\msg_exspiflash_music.o
 .comment       0x0000000000000000       0x12 Output\obj\projects\standard\message\msg_exspiflash_music.o
 .text          0x0000000000000000        0x0 Output\obj\projects\standard\message\msg_idle.o
 .data          0x0000000000000000        0x0 Output\obj\projects\standard\message\msg_idle.o
 .bss           0x0000000000000000        0x0 Output\obj\projects\standard\message\msg_idle.o
 .text.func.idle.msg
                0x0000000000000000       0x14 Output\obj\projects\standard\message\msg_idle.o
 .comment       0x0000000000000000       0x12 Output\obj\projects\standard\message\msg_idle.o
 .text          0x0000000000000000        0x0 Output\obj\projects\standard\message\msg_music.o
 .data          0x0000000000000000        0x0 Output\obj\projects\standard\message\msg_music.o
 .bss           0x0000000000000000        0x0 Output\obj\projects\standard\message\msg_music.o
 .comment       0x0000000000000000       0x12 Output\obj\projects\standard\message\msg_music.o
 .text          0x0000000000000000        0x0 Output\obj\projects\standard\plugin\eq_table.o
 .data          0x0000000000000000        0x0 Output\obj\projects\standard\plugin\eq_table.o
 .bss           0x0000000000000000        0x0 Output\obj\projects\standard\plugin\eq_table.o
 .comment       0x0000000000000000       0x12 Output\obj\projects\standard\plugin\eq_table.o
 .text          0x0000000000000000        0x0 Output\obj\projects\standard\plugin\multi_lang.o
 .data          0x0000000000000000        0x0 Output\obj\projects\standard\plugin\multi_lang.o
 .bss           0x0000000000000000        0x0 Output\obj\projects\standard\plugin\multi_lang.o
 .comment       0x0000000000000000       0x12 Output\obj\projects\standard\plugin\multi_lang.o
 .text          0x0000000000000000        0x0 Output\obj\projects\standard\plugin\plugin.o
 .data          0x0000000000000000        0x0 Output\obj\projects\standard\plugin\plugin.o
 .bss           0x0000000000000000        0x0 Output\obj\projects\standard\plugin\plugin.o
 .text.sleep_wakeup_config
                0x0000000000000000        0x2 Output\obj\projects\standard\plugin\plugin.o
 .sdata.dac_en  0x0000000000000000        0x1 Output\obj\projects\standard\plugin\plugin.o
 COMMON         0x0000000000000000        0x4 Output\obj\projects\standard\plugin\plugin.o
 .text          0x0000000000000000        0x0 Output\obj\projects\standard\port\port_init.o
 .data          0x0000000000000000        0x0 Output\obj\projects\standard\port\port_init.o
 .bss           0x0000000000000000        0x0 Output\obj\projects\standard\port\port_init.o
 .com_rodata.bsp.test
                0x0000000000000000       0x19 Output\obj\projects\standard\port\port_init.o
 .text          0x0000000000000000        0x0 Output\obj\projects\standard\port\port_ir.o
 .data          0x0000000000000000        0x0 Output\obj\projects\standard\port\port_ir.o
 .bss           0x0000000000000000        0x0 Output\obj\projects\standard\port\port_ir.o
 .comment       0x0000000000000000       0x12 Output\obj\projects\standard\port\port_ir.o
 .text          0x0000000000000000        0x0 Output\obj\projects\standard\port\port_key.o
 .data          0x0000000000000000        0x0 Output\obj\projects\standard\port\port_key.o
 .bss           0x0000000000000000        0x0 Output\obj\projects\standard\port\port_key.o
 .text.poweron_key_init
                0x0000000000000000        0xa Output\obj\projects\standard\port\port_key.o
 .text.poweron_key_exit
                0x0000000000000000        0xa Output\obj\projects\standard\port\port_key.o
 .text.get_poweron_key
                0x0000000000000000       0x14 Output\obj\projects\standard\port\port_key.o
 .text          0x0000000000000000        0x0 Output\obj\projects\standard\port\port_led.o
 .data          0x0000000000000000        0x0 Output\obj\projects\standard\port\port_led.o
 .bss           0x0000000000000000        0x0 Output\obj\projects\standard\port\port_led.o
 .comment       0x0000000000000000       0x12 Output\obj\projects\standard\port\port_led.o
 .text          0x0000000000000000        0x0 Output\obj\projects\standard\port\port_ledseg.o
 .data          0x0000000000000000        0x0 Output\obj\projects\standard\port\port_ledseg.o
 .bss           0x0000000000000000        0x0 Output\obj\projects\standard\port\port_ledseg.o
 .comment       0x0000000000000000       0x12 Output\obj\projects\standard\port\port_ledseg.o
 .text          0x0000000000000000        0x0 Output\obj\projects\standard\port\port_mute.o
 .data          0x0000000000000000        0x0 Output\obj\projects\standard\port\port_mute.o
 .bss           0x0000000000000000        0x0 Output\obj\projects\standard\port\port_mute.o
 .comment       0x0000000000000000       0x12 Output\obj\projects\standard\port\port_mute.o
 .text          0x0000000000000000        0x0 Output\obj\projects\standard\port\port_pwm.o
 .data          0x0000000000000000        0x0 Output\obj\projects\standard\port\port_pwm.o
 .bss           0x0000000000000000        0x0 Output\obj\projects\standard\port\port_pwm.o
 .comment       0x0000000000000000       0x12 Output\obj\projects\standard\port\port_pwm.o
 .text          0x0000000000000000        0x0 Output\obj\projects\standard\port\port_sd.o
 .data          0x0000000000000000        0x0 Output\obj\projects\standard\port\port_sd.o
 .bss           0x0000000000000000        0x0 Output\obj\projects\standard\port\port_sd.o
 .text.sdcard   0x0000000000000000        0x2 Output\obj\projects\standard\port\port_sd.o
 .com_text.sdio
                0x0000000000000000        0x4 Output\obj\projects\standard\port\port_sd.o
 .comment       0x0000000000000000       0x12 Output\obj\projects\standard\port\port_sd.o
 .text          0x0000000000000000        0x0 Output\obj\projects\standard\port\port_sd1.o
 .data          0x0000000000000000        0x0 Output\obj\projects\standard\port\port_sd1.o
 .bss           0x0000000000000000        0x0 Output\obj\projects\standard\port\port_sd1.o
 .text.sdcard   0x0000000000000000        0x2 Output\obj\projects\standard\port\port_sd1.o
 .comment       0x0000000000000000       0x12 Output\obj\projects\standard\port\port_sd1.o
 .text          0x0000000000000000        0x0 Output\obj\projects\standard\s_start.o
 .data          0x0000000000000000        0x0 Output\obj\projects\standard\s_start.o
 .bss           0x0000000000000000        0x0 Output\obj\projects\standard\s_start.o
 .text          0x0000000000000000        0x0 ..\..\platform\libs\libplatform.a(audio.o)
 .data          0x0000000000000000        0x0 ..\..\platform\libs\libplatform.a(audio.o)
 .bss           0x0000000000000000        0x0 ..\..\platform\libs\libplatform.a(audio.o)
 .text.pll0_vco_band_trimming
                0x0000000000000000       0x62 ..\..\platform\libs\libplatform.a(audio.o)
 .text          0x0000000000000000        0x0 ..\..\platform\libs\libplatform.a(dac.o)
 .data          0x0000000000000000        0x0 ..\..\platform\libs\libplatform.a(dac.o)
 .bss           0x0000000000000000        0x0 ..\..\platform\libs\libplatform.a(dac.o)
 .text.get_dac_spr
                0x0000000000000000        0xa ..\..\platform\libs\libplatform.a(dac.o)
 .text.dac_restart
                0x0000000000000000        0x2 ..\..\platform\libs\libplatform.a(dac.o)
 .text.dac_power_off
                0x0000000000000000       0x42 ..\..\platform\libs\libplatform.a(dac.o)
 .com_text.aux.dnr
                0x0000000000000000       0x38 ..\..\platform\libs\libplatform.a(dac.o)
 .com_text.dac.dnr
                0x0000000000000000       0xa8 ..\..\platform\libs\libplatform.a(dac.o)
 .text.dac.dnr  0x0000000000000000       0x7c ..\..\platform\libs\libplatform.a(dac.o)
 .text.dac_dc_exp_on
                0x0000000000000000       0x38 ..\..\platform\libs\libplatform.a(dac.o)
 .bss.aux_dnr_cb
                0x0000000000000000       0x12 ..\..\platform\libs\libplatform.a(dac.o)
 .text          0x0000000000000000        0x0 ..\..\platform\libs\libplatform.a(gpdma.o)
 .data          0x0000000000000000        0x0 ..\..\platform\libs\libplatform.a(gpdma.o)
 .bss           0x0000000000000000        0x0 ..\..\platform\libs\libplatform.a(gpdma.o)
 .com_text.dac_isr
                0x0000000000000000       0x1e ..\..\platform\libs\libplatform.a(gpdma.o)
 .text.dac_pnd_chkclr
                0x0000000000000000        0xc ..\..\platform\libs\libplatform.a(gpdma.o)
 .text.dac_get_pnd
                0x0000000000000000        0x8 ..\..\platform\libs\libplatform.a(gpdma.o)
 .text.dac_gpdma_irq_init
                0x0000000000000000       0x72 ..\..\platform\libs\libplatform.a(gpdma.o)
 .sbss.gpdma_buf_size
                0x0000000000000000        0x2 ..\..\platform\libs\libplatform.a(gpdma.o)
 .text          0x0000000000000000        0x0 ..\..\platform\libs\libplatform.a(s_dac.o)
 .data          0x0000000000000000        0x0 ..\..\platform\libs\libplatform.a(s_dac.o)
 .bss           0x0000000000000000        0x0 ..\..\platform\libs\libplatform.a(s_dac.o)
 .text.aux_dnr.asm
                0x0000000000000000       0x7a ..\..\platform\libs\libplatform.a(s_dac.o)
 .com_text.eq   0x0000000000000000       0x68 ..\..\platform\libs\libplatform.a(s_dac.o)
 .riscv.attributes
                0x0000000000000000       0x30 ..\..\platform\libs\libplatform.a(s_dac.o)
 .text          0x0000000000000000        0x0 ..\..\platform\libs\libplatform.a(cm.o)
 .data          0x0000000000000000        0x0 ..\..\platform\libs\libplatform.a(cm.o)
 .bss           0x0000000000000000        0x0 ..\..\platform\libs\libplatform.a(cm.o)
 .text.cm_get_startaddr
                0x0000000000000000        0xa ..\..\platform\libs\libplatform.a(cm.o)
 .text.cm_get_area
                0x0000000000000000       0x10 ..\..\platform\libs\libplatform.a(cm.o)
 .text.cm_release_all
                0x0000000000000000       0x9e ..\..\platform\libs\libplatform.a(cm.o)
 .text.cm_read8
                0x0000000000000000       0x28 ..\..\platform\libs\libplatform.a(cm.o)
 .text.cm_read16
                0x0000000000000000       0x28 ..\..\platform\libs\libplatform.a(cm.o)
 .text.cm_read32
                0x0000000000000000       0x24 ..\..\platform\libs\libplatform.a(cm.o)
 .text.cm_write8
                0x0000000000000000       0x28 ..\..\platform\libs\libplatform.a(cm.o)
 .text.cm_write16
                0x0000000000000000       0x28 ..\..\platform\libs\libplatform.a(cm.o)
 .text.cm_write32
                0x0000000000000000       0x24 ..\..\platform\libs\libplatform.a(cm.o)
 .text.cm_clear
                0x0000000000000000       0x3e ..\..\platform\libs\libplatform.a(cm.o)
 .text          0x0000000000000000        0x0 ..\..\platform\libs\libplatform.a(os_flash.o)
 .data          0x0000000000000000        0x0 ..\..\platform\libs\libplatform.a(os_flash.o)
 .bss           0x0000000000000000        0x0 ..\..\platform\libs\libplatform.a(os_flash.o)
 .com_text.spiflash1
                0x0000000000000000       0x7a ..\..\platform\libs\libplatform.a(os_flash.o)
 .text          0x0000000000000000        0x0 ..\..\platform\libs\libplatform.a(xcfg.o)
 .data          0x0000000000000000        0x0 ..\..\platform\libs\libplatform.a(xcfg.o)
 .bss           0x0000000000000000        0x0 ..\..\platform\libs\libplatform.a(xcfg.o)
 .text          0x0000000000000000        0x0 ..\..\platform\libs\libplatform.a(main.o)
 .data          0x0000000000000000        0x0 ..\..\platform\libs\libplatform.a(main.o)
 .bss           0x0000000000000000        0x0 ..\..\platform\libs\libplatform.a(main.o)
 .text.dcache_init
                0x0000000000000000       0x3c ..\..\platform\libs\libplatform.a(main.o)
 .pdncom_text.lp.sleep
                0x0000000000000000       0x3c ..\..\platform\libs\libplatform.a(main.o)
 .text.dcache_init_4addr
                0x0000000000000000       0x3c ..\..\platform\libs\libplatform.a(main.o)
 .text.uart0_mapping_sel
                0x0000000000000000        0x2 ..\..\platform\libs\libplatform.a(main.o)
 .text.platform_main_insert
                0x0000000000000000       0x10 ..\..\platform\libs\libplatform.a(main.o)
 .text.main_startup
                0x0000000000000000       0x12 ..\..\platform\libs\libplatform.a(main.o)
 .text.compiler
                0x0000000000000000       0x28 ..\..\platform\libs\libplatform.a(main.o)
 .text          0x0000000000000000        0x0 ..\..\platform\libs\libplatform.a(codecs_pcm.o)
 .data          0x0000000000000000        0x0 ..\..\platform\libs\libplatform.a(codecs_pcm.o)
 .bss           0x0000000000000000        0x0 ..\..\platform\libs\libplatform.a(codecs_pcm.o)
 .text.midi_dec_pcm_out_cb
                0x0000000000000000        0x8 ..\..\platform\libs\libplatform.a(codecs_pcm.o)
 .text.midi_dec_pause_do
                0x0000000000000000       0x42 ..\..\platform\libs\libplatform.a(codecs_pcm.o)
 .text          0x0000000000000000        0x0 ..\..\platform\libs\libplatform.a(music.o)
 .data          0x0000000000000000        0x0 ..\..\platform\libs\libplatform.a(music.o)
 .bss           0x0000000000000000        0x0 ..\..\platform\libs\libplatform.a(music.o)
 .text.music_get_total_time
                0x0000000000000000       0x4e ..\..\platform\libs\libplatform.a(music.o)
 .text.music_get_cur_time
                0x0000000000000000        0xa ..\..\platform\libs\libplatform.a(music.o)
 .text.wav_decode_init
                0x0000000000000000       0x5a ..\..\platform\libs\libplatform.a(music.o)
 .text.wav_2_decode_init
                0x0000000000000000       0x5a ..\..\platform\libs\libplatform.a(music.o)
 .text.mp3_decode_init
                0x0000000000000000       0x5c ..\..\platform\libs\libplatform.a(music.o)
 .text.spi_esbc_decode_init
                0x0000000000000000       0x82 ..\..\platform\libs\libplatform.a(music.o)
 .text.spi_esbc_link_decode_init
                0x0000000000000000        0x8 ..\..\platform\libs\libplatform.a(music.o)
 .text.lsbc_decode_init
                0x0000000000000000       0x5c ..\..\platform\libs\libplatform.a(music.o)
 .text.spi_lsbc_decode_init
                0x0000000000000000       0x8e ..\..\platform\libs\libplatform.a(music.o)
 .text.spi_midi_decode_init
                0x0000000000000000       0x46 ..\..\platform\libs\libplatform.a(music.o)
 .text.music_decode_init
                0x0000000000000000       0x30 ..\..\platform\libs\libplatform.a(music.o)
 .text.set_music_dec_sta
                0x0000000000000000        0xa ..\..\platform\libs\libplatform.a(music.o)
 .text.msc_drc_process
                0x0000000000000000       0x2e ..\..\platform\libs\libplatform.a(music.o)
 .text.get_music_cb_pcm_samples
                0x0000000000000000        0xa ..\..\platform\libs\libplatform.a(music.o)
 .text.set_music_cb_pcm_samples
                0x0000000000000000        0xa ..\..\platform\libs\libplatform.a(music.o)
 .text.get_msc_layer_mode
                0x0000000000000000        0x4 ..\..\platform\libs\libplatform.a(music.o)
 .text          0x0000000000000000        0x0 ..\..\platform\libs\libplatform.a(music_res.o)
 .data          0x0000000000000000        0x0 ..\..\platform\libs\libplatform.a(music_res.o)
 .bss           0x0000000000000000        0x0 ..\..\platform\libs\libplatform.a(music_res.o)
 .text.spires_get_pos
                0x0000000000000000        0xa ..\..\platform\libs\libplatform.a(music_res.o)
 .text.spires_load_pos
                0x0000000000000000        0xa ..\..\platform\libs\libplatform.a(music_res.o)
 .text.register_spi_read_function
                0x0000000000000000        0xa ..\..\platform\libs\libplatform.a(music_res.o)
 .text.register_spi_wav_read_function
                0x0000000000000000        0xa ..\..\platform\libs\libplatform.a(music_res.o)
 .text.spiflash_mp3_loop_skip_start_size
                0x0000000000000000        0xa ..\..\platform\libs\libplatform.a(music_res.o)
 .text.spiflash_mp3_loop_skip_end_size
                0x0000000000000000        0xa ..\..\platform\libs\libplatform.a(music_res.o)
 .text.spiflash_mp3_skip_start_size
                0x0000000000000000       0x16 ..\..\platform\libs\libplatform.a(music_res.o)
 .text.spiflash_mp3_skip_end_size
                0x0000000000000000       0x16 ..\..\platform\libs\libplatform.a(music_res.o)
 .text.esbc_spi_stream_read
                0x0000000000000000       0x9c ..\..\platform\libs\libplatform.a(music_res.o)
 .text.lsbc_spi_stream_read
                0x0000000000000000       0xae ..\..\platform\libs\libplatform.a(music_res.o)
 .text.res_play_loop_back_skip_size
                0x0000000000000000       0x12 ..\..\platform\libs\libplatform.a(music_res.o)
 .text.res_play_loop_back
                0x0000000000000000        0xa ..\..\platform\libs\libplatform.a(music_res.o)
 .text.mp3_res_loop_play_kick
                0x0000000000000000       0x76 ..\..\platform\libs\libplatform.a(music_res.o)
 .text.mp3_res_play_exit
                0x0000000000000000       0x24 ..\..\platform\libs\libplatform.a(music_res.o)
 .text.vmp3_res_play_kick
                0x0000000000000000       0x72 ..\..\platform\libs\libplatform.a(music_res.o)
 .text.vmp3_res_loop_play_kick
                0x0000000000000000       0x76 ..\..\platform\libs\libplatform.a(music_res.o)
 .text.vmp3_res_play_exit
                0x0000000000000000        0x8 ..\..\platform\libs\libplatform.a(music_res.o)
 .text.mp3_link_play_init_do
                0x0000000000000000       0x52 ..\..\platform\libs\libplatform.a(music_res.o)
 .text.vmp3_link_play_init_do
                0x0000000000000000       0x52 ..\..\platform\libs\libplatform.a(music_res.o)
 .text.mp3_link_play_kick
                0x0000000000000000       0x7a ..\..\platform\libs\libplatform.a(music_res.o)
 .text.wav2_spi_stream_read
                0x0000000000000000       0x14 ..\..\platform\libs\libplatform.a(music_res.o)
 .text.wav2_spi_stream_seek
                0x0000000000000000       0x14 ..\..\platform\libs\libplatform.a(music_res.o)
 .text.get_wav2_res_ptr
                0x0000000000000000        0xa ..\..\platform\libs\libplatform.a(music_res.o)
 .text.wav3_spi_stream_read
                0x0000000000000000       0x14 ..\..\platform\libs\libplatform.a(music_res.o)
 .text.wav3_spi_stream_seek
                0x0000000000000000       0x14 ..\..\platform\libs\libplatform.a(music_res.o)
 .text.get_wav3_res_ptr
                0x0000000000000000        0xa ..\..\platform\libs\libplatform.a(music_res.o)
 .text.wav_res_play_loop_back
                0x0000000000000000        0xa ..\..\platform\libs\libplatform.a(music_res.o)
 .text.wav_res_play_exit
                0x0000000000000000        0xa ..\..\platform\libs\libplatform.a(music_res.o)
 .text.esbc_res_play_kick
                0x0000000000000000       0x82 ..\..\platform\libs\libplatform.a(music_res.o)
 .text.esbc_res_play_exit
                0x0000000000000000       0x10 ..\..\platform\libs\libplatform.a(music_res.o)
 .text.esbc_link_play_init
                0x0000000000000000       0x50 ..\..\platform\libs\libplatform.a(music_res.o)
 .text.esbc_link_play_kick
                0x0000000000000000       0x48 ..\..\platform\libs\libplatform.a(music_res.o)
 .text.lsbc_res_play_exit
                0x0000000000000000        0x8 ..\..\platform\libs\libplatform.a(music_res.o)
 .text.get_lsbc_total_frame
                0x0000000000000000       0x26 ..\..\platform\libs\libplatform.a(music_res.o)
 .text.break_point_calculate
                0x0000000000000000       0x2a ..\..\platform\libs\libplatform.a(music_res.o)
 .rodata.lsbc_res_play_kick.str1.4
                0x0000000000000000        0x5 ..\..\platform\libs\libplatform.a(music_res.o)
 .text.lsbc_res_play_kick
                0x0000000000000000       0xa4 ..\..\platform\libs\libplatform.a(music_res.o)
 .rodata.lsbc_res_loop_play_kick.str1.4
                0x0000000000000000       0x4f ..\..\platform\libs\libplatform.a(music_res.o)
 .text.lsbc_res_loop_play_kick
                0x0000000000000000      0x134 ..\..\platform\libs\libplatform.a(music_res.o)
 .text.midi_play_kick_do
                0x0000000000000000       0x50 ..\..\platform\libs\libplatform.a(music_res.o)
 .buf.wavres2   0x0000000000000000       0x24 ..\..\platform\libs\libplatform.a(music_res.o)
 .buf.wavres3   0x0000000000000000       0x24 ..\..\platform\libs\libplatform.a(music_res.o)
 .rodata.__func__.0
                0x0000000000000000       0x13 ..\..\platform\libs\libplatform.a(music_res.o)
 .rodata.block_sizes
                0x0000000000000000        0x9 ..\..\platform\libs\libplatform.a(music_res.o)
 .sbss.end      0x0000000000000000        0x1 ..\..\platform\libs\libplatform.a(music_res.o)
 .sbss.lsbc_skip_end_frame
                0x0000000000000000        0x2 ..\..\platform\libs\libplatform.a(music_res.o)
 .sbss.lsbc_skip_start_frame
                0x0000000000000000        0x2 ..\..\platform\libs\libplatform.a(music_res.o)
 .sdata.spi_mp3_encrypt_key
                0x0000000000000000        0x2 ..\..\platform\libs\libplatform.a(music_res.o)
 .text          0x0000000000000000        0x0 ..\..\platform\libs\libplatform.a(gpio.o)
 .data          0x0000000000000000        0x0 ..\..\platform\libs\libplatform.a(gpio.o)
 .bss           0x0000000000000000        0x0 ..\..\platform\libs\libplatform.a(gpio.o)
 .text.lowpwr.sleep
                0x0000000000000000      0x156 ..\..\platform\libs\libplatform.a(gpio.o)
 .com_text.lowpwr.sleep
                0x0000000000000000        0xc ..\..\platform\libs\libplatform.a(gpio.o)
 .text.adcch_io_pu10k_enable
                0x0000000000000000       0x48 ..\..\platform\libs\libplatform.a(gpio.o)
 .text.gpio_compiler
                0x0000000000000000        0x2 ..\..\platform\libs\libplatform.a(gpio.o)
 .rodata.adc_gpio
                0x0000000000000000       0x10 ..\..\platform\libs\libplatform.a(gpio.o)
 .text          0x0000000000000000        0x0 ..\..\platform\libs\libplatform.a(key.o)
 .data          0x0000000000000000        0x0 ..\..\platform\libs\libplatform.a(key.o)
 .bss           0x0000000000000000        0x0 ..\..\platform\libs\libplatform.a(key.o)
 .com_text.bsp.multikey
                0x0000000000000000       0x10 ..\..\platform\libs\libplatform.a(key.o)
 .text          0x0000000000000000        0x0 ..\..\platform\libs\libplatform.a(pmu.o)
 .data          0x0000000000000000        0x0 ..\..\platform\libs\libplatform.a(pmu.o)
 .bss           0x0000000000000000        0x0 ..\..\platform\libs\libplatform.a(pmu.o)
 .text.vddio_voltage_user_cfg
                0x0000000000000000       0x50 ..\..\platform\libs\libplatform.a(pmu.o)
 .sbss.reset_cfg_sel
                0x0000000000000000        0x1 ..\..\platform\libs\libplatform.a(pmu.o)
 .sbss.vddio_cfg_sel
                0x0000000000000000        0x1 ..\..\platform\libs\libplatform.a(pmu.o)
 .text          0x0000000000000000        0x0 ..\..\platform\libs\libplatform.a(saradc.o)
 .data          0x0000000000000000        0x0 ..\..\platform\libs\libplatform.a(saradc.o)
 .bss           0x0000000000000000        0x0 ..\..\platform\libs\libplatform.a(saradc.o)
 .text          0x0000000000000000        0x0 ..\..\platform\libs\libplatform.a(reset.o)
 .data          0x0000000000000000        0x0 ..\..\platform\libs\libplatform.a(reset.o)
 .bss           0x0000000000000000        0x0 ..\..\platform\libs\libplatform.a(reset.o)
 .com_text.irq  0x0000000000000000       0xc0 ..\..\platform\libs\libplatform.a(reset.o)
 .riscv.attributes
                0x0000000000000000       0x34 ..\..\platform\libs\libplatform.a(reset.o)
 .text          0x0000000000000000        0x0 ..\..\platform\libs\libplatform.a(buffer.o)
 .data          0x0000000000000000        0x0 ..\..\platform\libs\libplatform.a(buffer.o)
 .bss           0x0000000000000000        0x0 ..\..\platform\libs\libplatform.a(buffer.o)
 .text.circular_buf_is_write_able
                0x0000000000000000       0x12 ..\..\platform\libs\libplatform.a(buffer.o)
 .text.circular_buf_clear
                0x0000000000000000       0x2a ..\..\platform\libs\libplatform.a(buffer.o)
 .text.circular_buf_init
                0x0000000000000000       0x34 ..\..\platform\libs\libplatform.a(buffer.o)
 .text          0x0000000000000000        0x0 ..\..\platform\libs\libplatform.a(debug.o)
 .data          0x0000000000000000        0x0 ..\..\platform\libs\libplatform.a(debug.o)
 .bss           0x0000000000000000        0x0 ..\..\platform\libs\libplatform.a(debug.o)
 .text.debug_dump_info_nanos_schedule
                0x0000000000000000        0x2 ..\..\platform\libs\libplatform.a(debug.o)
 .text.debug_dump_info_nanos_timer
                0x0000000000000000        0x2 ..\..\platform\libs\libplatform.a(debug.o)
 .text          0x0000000000000000        0x0 ..\..\platform\libs\libplatform.a(interrupt.o)
 .data          0x0000000000000000        0x0 ..\..\platform\libs\libplatform.a(interrupt.o)
 .bss           0x0000000000000000        0x0 ..\..\platform\libs\libplatform.a(interrupt.o)
 .text.uart0_isr_init
                0x0000000000000000       0x50 ..\..\platform\libs\libplatform.a(interrupt.o)
 .text.sys_irq_init
                0x0000000000000000       0xa4 ..\..\platform\libs\libplatform.a(interrupt.o)
 .text.sd0_irq_init
                0x0000000000000000       0x3a ..\..\platform\libs\libplatform.a(interrupt.o)
 .text.tkey_irq_init
                0x0000000000000000       0x3a ..\..\platform\libs\libplatform.a(interrupt.o)
 .text.freqdet_irq_init
                0x0000000000000000       0x3a ..\..\platform\libs\libplatform.a(interrupt.o)
 .text.pwm_irq_init
                0x0000000000000000       0x3a ..\..\platform\libs\libplatform.a(interrupt.o)
 .text.watch_point_set
                0x0000000000000000       0x2c ..\..\platform\libs\libplatform.a(interrupt.o)
 .text.midi_irq_init
                0x0000000000000000       0x3a ..\..\platform\libs\libplatform.a(interrupt.o)
 .com_text.isr  0x0000000000000000       0x76 ..\..\platform\libs\libplatform.a(interrupt.o)
 .text          0x0000000000000000        0x0 ..\..\platform\libs\libplatform.a(s_sys.o)
 .data          0x0000000000000000        0x0 ..\..\platform\libs\libplatform.a(s_sys.o)
 .bss           0x0000000000000000        0x0 ..\..\platform\libs\libplatform.a(s_sys.o)
 .text          0x0000000000000000        0x0 ..\..\platform\libs\libplatform.a(sys.o)
 .data          0x0000000000000000        0x0 ..\..\platform\libs\libplatform.a(sys.o)
 .bss           0x0000000000000000        0x0 ..\..\platform\libs\libplatform.a(sys.o)
 .text.dbg_clk_out
                0x0000000000000000       0x48 ..\..\platform\libs\libplatform.a(sys.o)
 .text.__divdi3
                0x0000000000000000       0x5c ..\..\platform\libs\libplatform.a(sys.o)
 .text.__umoddi3
                0x0000000000000000       0x30 ..\..\platform\libs\libplatform.a(sys.o)
 .text.get_random
                0x0000000000000000       0x48 ..\..\platform\libs\libplatform.a(sys.o)
 .text.random_init
                0x0000000000000000        0xa ..\..\platform\libs\libplatform.a(sys.o)
 .text          0x0000000000000000        0x0 ..\..\platform\libs\libplatform.a(sys_clk.o)
 .data          0x0000000000000000        0x0 ..\..\platform\libs\libplatform.a(sys_clk.o)
 .bss           0x0000000000000000        0x0 ..\..\platform\libs\libplatform.a(sys_clk.o)
 .sbss.cfg_flash_dual_read
                0x0000000000000000        0x1 ..\..\platform\libs\libplatform.a(sys_clk.o)
 .sbss.cfg_spiflash_speed_up_en
                0x0000000000000000        0x1 ..\..\platform\libs\libplatform.a(sys_clk.o)
 .sdata.cfg_uart0_baud_update_en
                0x0000000000000000        0x1 ..\..\platform\libs\libplatform.a(sys_clk.o)
 .text          0x0000000000000000        0x0 ..\..\platform\libs\libplatform.a(voltage_trim.o)
 .data          0x0000000000000000        0x0 ..\..\platform\libs\libplatform.a(voltage_trim.o)
 .bss           0x0000000000000000        0x0 ..\..\platform\libs\libplatform.a(voltage_trim.o)
 .rodata.voltage_trim_value_printf.str1.4
                0x0000000000000000       0x63 ..\..\platform\libs\libplatform.a(voltage_trim.o)
 .text.voltage_trim_value_printf
                0x0000000000000000       0x98 ..\..\platform\libs\libplatform.a(voltage_trim.o)
 .text          0x0000000000000000        0x0 ..\..\platform\libs\libplatform.a(weak_symbol.o)
 .data          0x0000000000000000        0x0 ..\..\platform\libs\libplatform.a(weak_symbol.o)
 .bss           0x0000000000000000        0x0 ..\..\platform\libs\libplatform.a(weak_symbol.o)
 .sbss.dac_classd_mode
                0x0000000000000000        0x1 ..\..\platform\libs\libplatform.a(weak_symbol.o)
 .sbss.dac_drc_en
                0x0000000000000000        0x1 ..\..\platform\libs\libplatform.a(weak_symbol.o)
 .sbss.dac_en   0x0000000000000000        0x1 ..\..\platform\libs\libplatform.a(weak_symbol.o)
 .sbss.dac_soft_eq_en
                0x0000000000000000        0x1 ..\..\platform\libs\libplatform.a(weak_symbol.o)
 .sbss.dac_soft_gain
                0x0000000000000000        0x1 ..\..\platform\libs\libplatform.a(weak_symbol.o)
 .sbss.lvd_irq_en
                0x0000000000000000        0x1 ..\..\platform\libs\libplatform.a(weak_symbol.o)
 .text          0x0000000000000000        0x0 ..\..\platform\libs\libplatform.a(sd_api.o)
 .data          0x0000000000000000        0x0 ..\..\platform\libs\libplatform.a(sd_api.o)
 .bss           0x0000000000000000        0x0 ..\..\platform\libs\libplatform.a(sd_api.o)
 .com_text.sd.isr
                0x0000000000000000       0x16 ..\..\platform\libs\libplatform.a(sd_api.o)
 .text.sdio     0x0000000000000000        0x8 ..\..\platform\libs\libplatform.a(sd_api.o)
 .com_text.sd.api
                0x0000000000000000       0x78 ..\..\platform\libs\libplatform.a(sd_api.o)
 .text.sd_other_param_set
                0x0000000000000000       0x26 ..\..\platform\libs\libplatform.a(sd_api.o)
 .text.sd_disk_init
                0x0000000000000000       0xdc ..\..\platform\libs\libplatform.a(sd_api.o)
 .text.sd_disk_switch
                0x0000000000000000       0x4e ..\..\platform\libs\libplatform.a(sd_api.o)
 .text.ude_sd_remove
                0x0000000000000000       0x12 ..\..\platform\libs\libplatform.a(sd_api.o)
 .text.sd_soft_detect
                0x0000000000000000       0x10 ..\..\platform\libs\libplatform.a(sd_api.o)
 .text.sd0_init
                0x0000000000000000       0x10 ..\..\platform\libs\libplatform.a(sd_api.o)
 .text.sd0_stop
                0x0000000000000000       0x12 ..\..\platform\libs\libplatform.a(sd_api.o)
 .text.sd0_read
                0x0000000000000000       0x14 ..\..\platform\libs\libplatform.a(sd_api.o)
 .text.sd0_read_start
                0x0000000000000000       0x14 ..\..\platform\libs\libplatform.a(sd_api.o)
 .text.sd0_read_kick
                0x0000000000000000       0x12 ..\..\platform\libs\libplatform.a(sd_api.o)
 .text.sd0_read_wait
                0x0000000000000000       0x10 ..\..\platform\libs\libplatform.a(sd_api.o)
 .text.sd0_write
                0x0000000000000000       0x14 ..\..\platform\libs\libplatform.a(sd_api.o)
 .text.sd0_write_start
                0x0000000000000000       0x14 ..\..\platform\libs\libplatform.a(sd_api.o)
 .text.sd0_write_kick
                0x0000000000000000       0x12 ..\..\platform\libs\libplatform.a(sd_api.o)
 .text.sd0_write_wait
                0x0000000000000000       0x10 ..\..\platform\libs\libplatform.a(sd_api.o)
 .text.sd0_rw_end
                0x0000000000000000       0x10 ..\..\platform\libs\libplatform.a(sd_api.o)
 .text.sd0_go_idle_state
                0x0000000000000000       0x10 ..\..\platform\libs\libplatform.a(sd_api.o)
 .text.sd0_get_rw_sta
                0x0000000000000000        0xe ..\..\platform\libs\libplatform.a(sd_api.o)
 .text.sd0_set_invalid_state
                0x0000000000000000       0x40 ..\..\platform\libs\libplatform.a(sd_api.o)
 .text.func.music
                0x0000000000000000      0x206 ..\..\platform\libs\libplatform.a(sd_api.o)
 .bss.sdcb_0    0x0000000000000000       0x38 ..\..\platform\libs\libplatform.a(sd_api.o)
 .bss.sdcfg_0   0x0000000000000000       0x10 ..\..\platform\libs\libplatform.a(sd_api.o)
 .bss.sdfunc_0  0x0000000000000000       0x18 ..\..\platform\libs\libplatform.a(sd_api.o)
 .buf.func.music
                0x0000000000000000      0x3bc ..\..\platform\libs\libplatform.a(sd_api.o)
 .sbss.sd_cb    0x0000000000000000        0x4 ..\..\platform\libs\libplatform.a(sd_api.o)
 .sbss.sdcfg    0x0000000000000000        0x4 ..\..\platform\libs\libplatform.a(sd_api.o)
 .sbss.sdfunc   0x0000000000000000        0x4 ..\..\platform\libs\libplatform.a(sd_api.o)
 .comment       0x0000000000000000       0x13 ..\..\platform\libs\libplatform.a(sd_api.o)
 .riscv.attributes
                0x0000000000000000       0x32 ..\..\platform\libs\libplatform.a(sd_api.o)
 .text          0x0000000000000000        0x0 ..\..\platform\libs\libdrivers.a(midi_ctrl.o)
 .data          0x0000000000000000        0x0 ..\..\platform\libs\libdrivers.a(midi_ctrl.o)
 .bss           0x0000000000000000        0x0 ..\..\platform\libs\libdrivers.a(midi_ctrl.o)
 .rodata.bsp_midi_dump_sfr.str1.4
                0x0000000000000000       0x61 ..\..\platform\libs\libdrivers.a(midi_ctrl.o)
 .text.bsp_midi_dump_sfr
                0x0000000000000000       0x74 ..\..\platform\libs\libdrivers.a(midi_ctrl.o)
 .text.bsp_midi_clk_init
                0x0000000000000000       0x2a ..\..\platform\libs\libdrivers.a(midi_ctrl.o)
 .text.bsp_midi_init
                0x0000000000000000       0x66 ..\..\platform\libs\libdrivers.a(midi_ctrl.o)
 .text.bsp_midi_set_outbuf
                0x0000000000000000        0x6 ..\..\platform\libs\libdrivers.a(midi_ctrl.o)
 .text.bsp_midi_kick
                0x0000000000000000       0x10 ..\..\platform\libs\libdrivers.a(midi_ctrl.o)
 .text.bsp_midi_wait
                0x0000000000000000       0x1c ..\..\platform\libs\libdrivers.a(midi_ctrl.o)
 .text.bsp_midi_interrupt_enable
                0x0000000000000000        0xe ..\..\platform\libs\libdrivers.a(midi_ctrl.o)
 .text.bsp_midi_interrupt_disable
                0x0000000000000000        0xc ..\..\platform\libs\libdrivers.a(midi_ctrl.o)
 .midi_text.midi.isr
                0x0000000000000000       0x14 ..\..\platform\libs\libdrivers.a(midi_ctrl.o)
 .text.msynth_pan_sqrt14
                0x0000000000000000       0x64 ..\..\platform\libs\libdrivers.a(midi_ctrl.o)
 .text.nlog2_16
                0x0000000000000000       0xfa ..\..\platform\libs\libdrivers.a(midi_ctrl.o)
 .text.exp2_s15p16
                0x0000000000000000      0x298 ..\..\platform\libs\libdrivers.a(midi_ctrl.o)
 .text.tan_s15p16
                0x0000000000000000       0x7c ..\..\platform\libs\libdrivers.a(midi_ctrl.o)
 .midi_text.adpcm_decoder
                0x0000000000000000       0x84 ..\..\platform\libs\libdrivers.a(midi_ctrl.o)
 .text.adpcm_decode
                0x0000000000000000       0x4e ..\..\platform\libs\libdrivers.a(midi_ctrl.o)
 .text.adpcm_coder
                0x0000000000000000       0xb6 ..\..\platform\libs\libdrivers.a(midi_ctrl.o)
 .rodata.adpcm_stepsize
                0x0000000000000000       0xb2 ..\..\platform\libs\libdrivers.a(midi_ctrl.o)
 .rodata.sample_rate_type
                0x0000000000000000        0xd ..\..\platform\libs\libdrivers.a(midi_ctrl.o)
 .srodata.adpcm_index
                0x0000000000000000        0x8 ..\..\platform\libs\libdrivers.a(midi_ctrl.o)
 .comment       0x0000000000000000       0x13 ..\..\platform\libs\libdrivers.a(midi_ctrl.o)
 .riscv.attributes
                0x0000000000000000       0x36 ..\..\platform\libs\libdrivers.a(midi_ctrl.o)
 .text          0x0000000000000000        0x0 ..\..\platform\libs\libdrivers.a(midi_sf.o)
 .data          0x0000000000000000        0x0 ..\..\platform\libs\libdrivers.a(midi_sf.o)
 .bss           0x0000000000000000        0x0 ..\..\platform\libs\libdrivers.a(midi_sf.o)
 .text.msf_soundfont_init_mem
                0x0000000000000000       0x2c ..\..\platform\libs\libdrivers.a(midi_sf.o)
 .text.msf_adjustpitch
                0x0000000000000000       0x40 ..\..\platform\libs\libdrivers.a(midi_sf.o)
 .text.msf_getpan
                0x0000000000000000       0x12 ..\..\platform\libs\libdrivers.a(midi_sf.o)
 .text.msf_get_presetindex
                0x0000000000000000       0x28 ..\..\platform\libs\libdrivers.a(midi_sf.o)
 .text.msynth_note_on
                0x0000000000000000      0x36e ..\..\platform\libs\libdrivers.a(midi_sf.o)
 .text.msf_compiler
                0x0000000000000000        0x2 ..\..\platform\libs\libdrivers.a(midi_sf.o)
 .gsf_buf.wavout
                0x0000000000000000       0x14 ..\..\platform\libs\libdrivers.a(midi_sf.o)
 .comment       0x0000000000000000       0x13 ..\..\platform\libs\libdrivers.a(midi_sf.o)
 .riscv.attributes
                0x0000000000000000       0x32 ..\..\platform\libs\libdrivers.a(midi_sf.o)
 .text          0x0000000000000000        0x0 ..\..\platform\libs\libdrivers.a(midi_synth.o)
 .data          0x0000000000000000        0x0 ..\..\platform\libs\libdrivers.a(midi_synth.o)
 .bss           0x0000000000000000        0x0 ..\..\platform\libs\libdrivers.a(midi_synth.o)
 .text.msynth_voice_calcpan.isra.0
                0x0000000000000000       0x64 ..\..\platform\libs\libdrivers.a(midi_synth.o)
 .text.msf_velToBinabels
                0x0000000000000000       0x28 ..\..\platform\libs\libdrivers.a(midi_synth.o)
 .text.msynth_voice_envelope_nextsegment
                0x0000000000000000      0x26e ..\..\platform\libs\libdrivers.a(midi_synth.o)
 .text.msynth_voice_envelope_process
                0x0000000000000000       0x40 ..\..\platform\libs\libdrivers.a(midi_synth.o)
 .text.msynth_voice_lowpass_process
                0x0000000000000000       0x34 ..\..\platform\libs\libdrivers.a(midi_synth.o)
 .text.msynth_voice_lowpass_setup
                0x0000000000000000       0x84 ..\..\platform\libs\libdrivers.a(midi_synth.o)
 .text.msynth_voice_kill
                0x0000000000000000       0x20 ..\..\platform\libs\libdrivers.a(midi_synth.o)
 .text.msynth_postprocess
                0x0000000000000000       0x9c ..\..\platform\libs\libdrivers.a(midi_synth.o)
 .text.msynth_set_output
                0x0000000000000000       0x20 ..\..\platform\libs\libdrivers.a(midi_synth.o)
 .text.msynth_voice_init
                0x0000000000000000       0x26 ..\..\platform\libs\libdrivers.a(midi_synth.o)
 .text.msynth_voice_end
                0x0000000000000000       0x66 ..\..\platform\libs\libdrivers.a(midi_synth.o)
 .text.msynth_voice_endquick
                0x0000000000000000       0x52 ..\..\platform\libs\libdrivers.a(midi_synth.o)
 .text.msynth_voice_envelope_setup
                0x0000000000000000       0xc6 ..\..\platform\libs\libdrivers.a(midi_synth.o)
 .text.msynth_voice_setup_envelope
                0x0000000000000000       0x3c ..\..\platform\libs\libdrivers.a(midi_synth.o)
 .text.msynth_voice_calcpitchratio
                0x0000000000000000       0x64 ..\..\platform\libs\libdrivers.a(midi_synth.o)
 .text.msynth_voice_channel_setup
                0x0000000000000000       0x74 ..\..\platform\libs\libdrivers.a(midi_synth.o)
 .text.msynth_voice_lfo_setup
                0x0000000000000000       0x3a ..\..\platform\libs\libdrivers.a(midi_synth.o)
 .text.msynth_voice_envelope_dump
                0x0000000000000000        0x2 ..\..\platform\libs\libdrivers.a(midi_synth.o)
 .text.msynth_note_off
                0x0000000000000000       0xb2 ..\..\platform\libs\libdrivers.a(midi_synth.o)
 .text.msynth_channels_init
                0x0000000000000000       0x54 ..\..\platform\libs\libdrivers.a(midi_synth.o)
 .text.msynth_channel_applypitch
                0x0000000000000000       0x7e ..\..\platform\libs\libdrivers.a(midi_synth.o)
 .text.msynth_channel_set_pitchwheel
                0x0000000000000000       0x3a ..\..\platform\libs\libdrivers.a(midi_synth.o)
 .text.msynth_channel_set_pitchrange
                0x0000000000000000       0x44 ..\..\platform\libs\libdrivers.a(midi_synth.o)
 .text.msynth_channel_set_bank_preset
                0x0000000000000000       0x40 ..\..\platform\libs\libdrivers.a(midi_synth.o)
 .text.msynth_channel_set_tuning
                0x0000000000000000       0x38 ..\..\platform\libs\libdrivers.a(midi_synth.o)
 .text.msynth_channel_set_pan
                0x0000000000000000       0x60 ..\..\platform\libs\libdrivers.a(midi_synth.o)
 .text.msynth_channel_set_volume
                0x0000000000000000       0xb0 ..\..\platform\libs\libdrivers.a(midi_synth.o)
 .text.msynth_channel_set_presetnumber
                0x0000000000000000       0xb8 ..\..\platform\libs\libdrivers.a(midi_synth.o)
 .text.msynth_channel_note_on
                0x0000000000000000       0x30 ..\..\platform\libs\libdrivers.a(midi_synth.o)
 .text.msynth_channel_note_off_all
                0x0000000000000000       0x62 ..\..\platform\libs\libdrivers.a(midi_synth.o)
 .text.msynth_all_channel_note_off
                0x0000000000000000       0x38 ..\..\platform\libs\libdrivers.a(midi_synth.o)
 .text.msynth_channel_sounds_off_all
                0x0000000000000000       0x68 ..\..\platform\libs\libdrivers.a(midi_synth.o)
 .text.midi_synth.mctrl
                0x0000000000000000      0x3d8 ..\..\platform\libs\libdrivers.a(midi_synth.o)
 .text.midi_messure_kick
                0x0000000000000000        0x8 ..\..\platform\libs\libdrivers.a(midi_synth.o)
 .text.msynth_render
                0x0000000000000000       0xc0 ..\..\platform\libs\libdrivers.a(midi_synth.o)
 .text.reset_okon_key_cnt
                0x0000000000000000        0xe ..\..\platform\libs\libdrivers.a(midi_synth.o)
 .text.midi_end_callback
                0x0000000000000000        0x2 ..\..\platform\libs\libdrivers.a(midi_synth.o)
 .text.get_midi_dec_sta
                0x0000000000000000        0xa ..\..\platform\libs\libdrivers.a(midi_synth.o)
 .text.AudioCallback
                0x0000000000000000      0x11e ..\..\platform\libs\libdrivers.a(midi_synth.o)
 .text.midi_voice_kill
                0x0000000000000000       0x10 ..\..\platform\libs\libdrivers.a(midi_synth.o)
 .text.midi_control
                0x0000000000000000       0x4c ..\..\platform\libs\libdrivers.a(midi_synth.o)
 .text.midi_decode
                0x0000000000000000       0x8a ..\..\platform\libs\libdrivers.a(midi_synth.o)
 .text.vmidi_res_play_exit
                0x0000000000000000       0x4e ..\..\platform\libs\libdrivers.a(midi_synth.o)
 .text.vmidi_res_play_kick
                0x0000000000000000       0xf8 ..\..\platform\libs\libdrivers.a(midi_synth.o)
 .text.vmidi_song_play_exit
                0x0000000000000000       0x36 ..\..\platform\libs\libdrivers.a(midi_synth.o)
 .text.vmidi_song_play_kick
                0x0000000000000000      0x110 ..\..\platform\libs\libdrivers.a(midi_synth.o)
 .text.midi_song_play_exit
                0x0000000000000000        0x8 ..\..\platform\libs\libdrivers.a(midi_synth.o)
 .text.midi_song_play_kick
                0x0000000000000000      0x10a ..\..\platform\libs\libdrivers.a(midi_synth.o)
 .text.midi_okon_init
                0x0000000000000000        0xa ..\..\platform\libs\libdrivers.a(midi_synth.o)
 .text.midi_cfg_init
                0x0000000000000000        0xa ..\..\platform\libs\libdrivers.a(midi_synth.o)
 .text.midi_synth.init
                0x0000000000000000      0x140 ..\..\platform\libs\libdrivers.a(midi_synth.o)
 .gsf_buf.wavout
                0x0000000000000000      0x304 ..\..\platform\libs\libdrivers.a(midi_synth.o)
 .m_buf.midi_cfg
                0x0000000000000000        0x8 ..\..\platform\libs\libdrivers.a(midi_synth.o)
 .midi_buf.synth
                0x0000000000000000     0x29a0 ..\..\platform\libs\libdrivers.a(midi_synth.o)
 .midi_text.midi_cfg
                0x0000000000000000       0x28 ..\..\platform\libs\libdrivers.a(midi_synth.o)
 .rodata.midi_sample_rate_tbl
                0x0000000000000000       0x10 ..\..\platform\libs\libdrivers.a(midi_synth.o)
 .rodata.samplerate
                0x0000000000000000        0xd ..\..\platform\libs\libdrivers.a(midi_synth.o)
 .comment       0x0000000000000000       0x13 ..\..\platform\libs\libdrivers.a(midi_synth.o)
 .riscv.attributes
                0x0000000000000000       0x32 ..\..\platform\libs\libdrivers.a(midi_synth.o)
 .text          0x0000000000000000        0x0 ..\..\platform\libs\libdrivers.a(sd.o)
 .data          0x0000000000000000        0x0 ..\..\platform\libs\libdrivers.a(sd.o)
 .bss           0x0000000000000000        0x0 ..\..\platform\libs\libdrivers.a(sd.o)
 .text.sdio     0x0000000000000000      0x378 ..\..\platform\libs\libdrivers.a(sd.o)
 .com_text.sdio.init
                0x0000000000000000       0x10 ..\..\platform\libs\libdrivers.a(sd.o)
 .text.sd_relative_addr_auto
                0x0000000000000000       0x2e ..\..\platform\libs\libdrivers.a(sd.o)
 .text.sdinit   0x0000000000000000      0x39a ..\..\platform\libs\libdrivers.a(sd.o)
 .text.sdfunc   0x0000000000000000       0x20 ..\..\platform\libs\libdrivers.a(sd.o)
 .text.sdread   0x0000000000000000      0x29a ..\..\platform\libs\libdrivers.a(sd.o)
 .text.sdwrite  0x0000000000000000      0x17c ..\..\platform\libs\libdrivers.a(sd.o)
 .rodata.sdread.str1.4
                0x0000000000000000        0xe ..\..\platform\libs\libdrivers.a(sd.o)
 .sbss.sd_gpio_init_type
                0x0000000000000000        0x1 ..\..\platform\libs\libdrivers.a(sd.o)
 .sbss.sd_read_ticks
                0x0000000000000000        0x1 ..\..\platform\libs\libdrivers.a(sd.o)
 .comment       0x0000000000000000       0x13 ..\..\platform\libs\libdrivers.a(sd.o)
 .riscv.attributes
                0x0000000000000000       0x32 ..\..\platform\libs\libdrivers.a(sd.o)
 .text          0x0000000000000000        0x0 ..\..\platform\libs\libdrivers.a(midi_dec.o)
 .data          0x0000000000000000        0x0 ..\..\platform\libs\libdrivers.a(midi_dec.o)
 .bss           0x0000000000000000        0x0 ..\..\platform\libs\libdrivers.a(midi_dec.o)
 .text.midi_rec_midi_data_read
                0x0000000000000000        0x4 ..\..\platform\libs\libdrivers.a(midi_dec.o)
 .text.midi_track_end_callback
                0x0000000000000000        0x2 ..\..\platform\libs\libdrivers.a(midi_dec.o)
 .text.midi_note_start_callback
                0x0000000000000000        0x2 ..\..\platform\libs\libdrivers.a(midi_dec.o)
 .text.midi_note_end_callback
                0x0000000000000000        0x2 ..\..\platform\libs\libdrivers.a(midi_dec.o)
 .text.midi_control_start_callback
                0x0000000000000000        0x2 ..\..\platform\libs\libdrivers.a(midi_dec.o)
 .text.midi_control_end_callback
                0x0000000000000000        0x2 ..\..\platform\libs\libdrivers.a(midi_dec.o)
 .text.midi_prog_start_callback
                0x0000000000000000        0x2 ..\..\platform\libs\libdrivers.a(midi_dec.o)
 .text.midi_prog_end_callback
                0x0000000000000000        0x2 ..\..\platform\libs\libdrivers.a(midi_dec.o)
 .text.midi_chan_at_start_callback
                0x0000000000000000        0x2 ..\..\platform\libs\libdrivers.a(midi_dec.o)
 .text.midi_chan_at_end_callback
                0x0000000000000000        0x2 ..\..\platform\libs\libdrivers.a(midi_dec.o)
 .text.midi_pitch_bend_start_callback
                0x0000000000000000        0x2 ..\..\platform\libs\libdrivers.a(midi_dec.o)
 .text.midi_pitch_bend_end_callback
                0x0000000000000000        0x2 ..\..\platform\libs\libdrivers.a(midi_dec.o)
 .text.midi_last_note_callback
                0x0000000000000000        0x2 ..\..\platform\libs\libdrivers.a(midi_dec.o)
 .text.get_okon_key_cnt
                0x0000000000000000        0xe ..\..\platform\libs\libdrivers.a(midi_dec.o)
 .text.get_midi_tick
                0x0000000000000000        0xa ..\..\platform\libs\libdrivers.a(midi_dec.o)
 .text.set_midi_tick
                0x0000000000000000       0x12 ..\..\platform\libs\libdrivers.a(midi_dec.o)
 .text.get_midi_break_point_frame
                0x0000000000000000        0x4 ..\..\platform\libs\libdrivers.a(midi_dec.o)
 .text.midi_break_point_save
                0x0000000000000000        0x2 ..\..\platform\libs\libdrivers.a(midi_dec.o)
 .text.vmidi_reset_decoder_state
                0x0000000000000000       0x1c ..\..\platform\libs\libdrivers.a(midi_dec.o)
 .text.mmem_get_events
                0x0000000000000000      0x352 ..\..\platform\libs\libdrivers.a(midi_dec.o)
 .text.midi_fifo_decode
                0x0000000000000000      0x150 ..\..\platform\libs\libdrivers.a(midi_dec.o)
 .text.get_midi_track_stat
                0x0000000000000000        0xa ..\..\platform\libs\libdrivers.a(midi_dec.o)
 .text.set_midi_track_stat
                0x0000000000000000       0x12 ..\..\platform\libs\libdrivers.a(midi_dec.o)
 .text.get_midi_channel_stat
                0x0000000000000000        0xa ..\..\platform\libs\libdrivers.a(midi_dec.o)
 .text.set_midi_channel_stat
                0x0000000000000000       0x12 ..\..\platform\libs\libdrivers.a(midi_dec.o)
 .text.get_midi_file_type
                0x0000000000000000        0xa ..\..\platform\libs\libdrivers.a(midi_dec.o)
 .text.set_midi_file_type
                0x0000000000000000       0x16 ..\..\platform\libs\libdrivers.a(midi_dec.o)
 .text.midi_reset_decoder_state
                0x0000000000000000       0x88 ..\..\platform\libs\libdrivers.a(midi_dec.o)
 .text.midi_decode_event_norm
                0x0000000000000000      0x41c ..\..\platform\libs\libdrivers.a(midi_dec.o)
 .text.midi_okon_mode_a
                0x0000000000000000      0x468 ..\..\platform\libs\libdrivers.a(midi_dec.o)
 .text.midi_okon_mode_b
                0x0000000000000000      0x60c ..\..\platform\libs\libdrivers.a(midi_dec.o)
 .text.midi_channel_voice_kill
                0x0000000000000000       0x4a ..\..\platform\libs\libdrivers.a(midi_dec.o)
 .text.midi_okon_mode_c
                0x0000000000000000      0x730 ..\..\platform\libs\libdrivers.a(midi_dec.o)
 .text.midi_decode_event_okon
                0x0000000000000000       0x4a ..\..\platform\libs\libdrivers.a(midi_dec.o)
 .text.midi_search_track_channel
                0x0000000000000000       0x9c ..\..\platform\libs\libdrivers.a(midi_dec.o)
 .text.midi_track_init
                0x0000000000000000       0x74 ..\..\platform\libs\libdrivers.a(midi_dec.o)
 .rodata.midi_file_info_init.str1.4
                0x0000000000000000       0x2a ..\..\platform\libs\libdrivers.a(midi_dec.o)
 .text.midi_file_info_init
                0x0000000000000000      0x1da ..\..\platform\libs\libdrivers.a(midi_dec.o)
 .text.mmem_init
                0x0000000000000000       0xbc ..\..\platform\libs\libdrivers.a(midi_dec.o)
 .text.midi_rec_cfg_init
                0x0000000000000000        0xc ..\..\platform\libs\libdrivers.a(midi_dec.o)
 .gsf_buf.wavout
                0x0000000000000000       0x20 ..\..\platform\libs\libdrivers.a(midi_dec.o)
 .m_buf.mfile_info
                0x0000000000000000       0xac ..\..\platform\libs\libdrivers.a(midi_dec.o)
 .sbss.midi_break_point_restore_en
                0x0000000000000000        0x1 ..\..\platform\libs\libdrivers.a(midi_dec.o)
 .sbss.midi_rec_cfg
                0x0000000000000000        0x4 ..\..\platform\libs\libdrivers.a(midi_dec.o)
 .comment       0x0000000000000000       0x13 ..\..\platform\libs\libdrivers.a(midi_dec.o)
 .riscv.attributes
                0x0000000000000000       0x32 ..\..\platform\libs\libdrivers.a(midi_dec.o)
 .data          0x0000000000000000        0x0 ..\..\platform\libs\libcodecs.a(aviobuf.o)
 .bss           0x0000000000000000        0x0 ..\..\platform\libs\libcodecs.a(aviobuf.o)
 .data          0x0000000000000000        0x0 ..\..\platform\libs\libcodecs.a(codecs_com.o)
 .bss           0x0000000000000000        0x0 ..\..\platform\libs\libcodecs.a(codecs_com.o)
 .rodata.str1.4
                0x0000000000000000       0x15 ..\..\platform\libs\libcodecs.a(codecs_com.o)
 .text.music_loopback
                0x0000000000000000       0xea ..\..\platform\libs\libcodecs.a(codecs_com.o)
 .data          0x0000000000000000        0x0 ..\..\platform\libs\libcodecs.a(esbc.o)
 .bss           0x0000000000000000        0x0 ..\..\platform\libs\libcodecs.a(esbc.o)
 .text          0x0000000000000000        0x0 ..\..\platform\libs\libcodecs.a(bits.o)
 .data          0x0000000000000000        0x0 ..\..\platform\libs\libcodecs.a(bits.o)
 .bss           0x0000000000000000        0x0 ..\..\platform\libs\libcodecs.a(bits.o)
 .data          0x0000000000000000        0x0 ..\..\platform\libs\libcodecs.a(dec_ld8a.o)
 .bss           0x0000000000000000        0x0 ..\..\platform\libs\libcodecs.a(dec_ld8a.o)
 .text          0x0000000000000000        0x0 ..\..\platform\libs\libcodecs.a(lpcfunc.o)
 .data          0x0000000000000000        0x0 ..\..\platform\libs\libcodecs.a(lpcfunc.o)
 .bss           0x0000000000000000        0x0 ..\..\platform\libs\libcodecs.a(lpcfunc.o)
 .text          0x0000000000000000        0x0 ..\..\platform\libs\libcodecs.a(lspdec.o)
 .data          0x0000000000000000        0x0 ..\..\platform\libs\libcodecs.a(lspdec.o)
 .bss           0x0000000000000000        0x0 ..\..\platform\libs\libcodecs.a(lspdec.o)
 .text          0x0000000000000000        0x0 ..\..\platform\libs\libcodecs.a(lspgetq.o)
 .data          0x0000000000000000        0x0 ..\..\platform\libs\libcodecs.a(lspgetq.o)
 .bss           0x0000000000000000        0x0 ..\..\platform\libs\libcodecs.a(lspgetq.o)
 .data          0x0000000000000000        0x0 ..\..\platform\libs\libcodecs.a(post_pro.o)
 .bss           0x0000000000000000        0x0 ..\..\platform\libs\libcodecs.a(post_pro.o)
 .text          0x0000000000000000        0x0 ..\..\platform\libs\libcodecs.a(postfilt.o)
 .data          0x0000000000000000        0x0 ..\..\platform\libs\libcodecs.a(postfilt.o)
 .bss           0x0000000000000000        0x0 ..\..\platform\libs\libcodecs.a(postfilt.o)
 .text          0x0000000000000000        0x0 ..\..\platform\libs\libcodecs.a(s_cod_ld8a.o)
 .data          0x0000000000000000        0x0 ..\..\platform\libs\libcodecs.a(s_cod_ld8a.o)
 .bss           0x0000000000000000        0x0 ..\..\platform\libs\libcodecs.a(s_cod_ld8a.o)
 .text          0x0000000000000000        0x0 ..\..\platform\libs\libcodecs.a(s_dec_ld8a.o)
 .data          0x0000000000000000        0x0 ..\..\platform\libs\libcodecs.a(s_dec_ld8a.o)
 .bss           0x0000000000000000        0x0 ..\..\platform\libs\libcodecs.a(s_dec_ld8a.o)
 .text          0x0000000000000000        0x0 ..\..\platform\libs\libcodecs.a(s_post_pro.o)
 .data          0x0000000000000000        0x0 ..\..\platform\libs\libcodecs.a(s_post_pro.o)
 .bss           0x0000000000000000        0x0 ..\..\platform\libs\libcodecs.a(s_post_pro.o)
 .text          0x0000000000000000        0x0 ..\..\platform\libs\libcodecs.a(s_postfilt.o)
 .data          0x0000000000000000        0x0 ..\..\platform\libs\libcodecs.a(s_postfilt.o)
 .bss           0x0000000000000000        0x0 ..\..\platform\libs\libcodecs.a(s_postfilt.o)
 .text          0x0000000000000000        0x0 ..\..\platform\libs\libcodecs.a(s_pred_lt3.o)
 .data          0x0000000000000000        0x0 ..\..\platform\libs\libcodecs.a(s_pred_lt3.o)
 .bss           0x0000000000000000        0x0 ..\..\platform\libs\libcodecs.a(s_pred_lt3.o)
 .text          0x0000000000000000        0x0 ..\..\platform\libs\libcodecs.a(tab_ld8a.o)
 .data          0x0000000000000000        0x0 ..\..\platform\libs\libcodecs.a(tab_ld8a.o)
 .bss           0x0000000000000000        0x0 ..\..\platform\libs\libcodecs.a(tab_ld8a.o)
 .text          0x0000000000000000        0x0 ..\..\platform\libs\libcodecs.a(util.o)
 .data          0x0000000000000000        0x0 ..\..\platform\libs\libcodecs.a(util.o)
 .bss           0x0000000000000000        0x0 ..\..\platform\libs\libcodecs.a(util.o)
 .data          0x0000000000000000        0x0 ..\..\platform\libs\libcodecs.a(lsbc.o)
 .bss           0x0000000000000000        0x0 ..\..\platform\libs\libcodecs.a(lsbc.o)
 .data          0x0000000000000000        0x0 ..\..\platform\libs\libcodecs.a(lsbcdeci.o)
 .bss           0x0000000000000000        0x0 ..\..\platform\libs\libcodecs.a(lsbcdeci.o)
 .text          0x0000000000000000        0x0 ..\..\platform\libs\libcodecs.a(lsbcfixed.o)
 .data          0x0000000000000000        0x0 ..\..\platform\libs\libcodecs.a(lsbcfixed.o)
 .bss           0x0000000000000000        0x0 ..\..\platform\libs\libcodecs.a(lsbcfixed.o)
 .text          0x0000000000000000        0x0 ..\..\platform\libs\libcodecs.a(mdct.o)
 .data          0x0000000000000000        0x0 ..\..\platform\libs\libcodecs.a(mdct.o)
 .bss           0x0000000000000000        0x0 ..\..\platform\libs\libcodecs.a(mdct.o)
 .text          0x0000000000000000        0x0 ..\..\platform\libs\libcodecs.a(s_imdct.o)
 .data          0x0000000000000000        0x0 ..\..\platform\libs\libcodecs.a(s_imdct.o)
 .bss           0x0000000000000000        0x0 ..\..\platform\libs\libcodecs.a(s_imdct.o)
 .text          0x0000000000000000        0x0 ..\..\platform\libs\libcodecs.a(s_wmadec.o)
 .data          0x0000000000000000        0x0 ..\..\platform\libs\libcodecs.a(s_wmadec.o)
 .bss           0x0000000000000000        0x0 ..\..\platform\libs\libcodecs.a(s_wmadec.o)
 .text          0x0000000000000000        0x0 ..\..\platform\libs\libcodecs.a(windows.o)
 .data          0x0000000000000000        0x0 ..\..\platform\libs\libcodecs.a(windows.o)
 .bss           0x0000000000000000        0x0 ..\..\platform\libs\libcodecs.a(windows.o)
 .text          0x0000000000000000        0x0 ..\..\platform\libs\libcodecs.a(layer3.o)
 .data          0x0000000000000000        0x0 ..\..\platform\libs\libcodecs.a(layer3.o)
 .bss           0x0000000000000000        0x0 ..\..\platform\libs\libcodecs.a(layer3.o)
 .data          0x0000000000000000        0x0 ..\..\platform\libs\libcodecs.a(mp3_dec.o)
 .bss           0x0000000000000000        0x0 ..\..\platform\libs\libcodecs.a(mp3_dec.o)
 .text          0x0000000000000000        0x0 ..\..\platform\libs\libcodecs.a(s_layer3.o)
 .data          0x0000000000000000        0x0 ..\..\platform\libs\libcodecs.a(s_layer3.o)
 .bss           0x0000000000000000        0x0 ..\..\platform\libs\libcodecs.a(s_layer3.o)
 .data          0x0000000000000000        0x0 ..\..\platform\libs\libcodecs.a(synth.o)
 .bss           0x0000000000000000        0x0 ..\..\platform\libs\libcodecs.a(synth.o)
 .data          0x0000000000000000        0x0 ..\..\platform\libs\libcodecs.a(wavdec.o)
 .wavdec.code   0x0000000000000000      0xa2a ..\..\platform\libs\libcodecs.a(wavdec.o)
 .data          0x0000000000000000        0x0 ..\..\platform\libs\libcodecs.a(codec.o)
 .bss           0x0000000000000000        0x0 ..\..\platform\libs\libcodecs.a(codec.o)
 .text          0x0000000000000000        0x0 ..\..\platform\libs\libcodecs.a(cod_ld8a.o)
 .data          0x0000000000000000        0x0 ..\..\platform\libs\libcodecs.a(cod_ld8a.o)
 .bss           0x0000000000000000        0x0 ..\..\platform\libs\libcodecs.a(cod_ld8a.o)
 .text          0x0000000000000000        0x0 ..\..\platform\libs\libcodecs.a(de_acelp.o)
 .data          0x0000000000000000        0x0 ..\..\platform\libs\libcodecs.a(de_acelp.o)
 .bss           0x0000000000000000        0x0 ..\..\platform\libs\libcodecs.a(de_acelp.o)
 .text          0x0000000000000000        0x0 ..\..\platform\libs\libcodecs.a(dec_gain.o)
 .data          0x0000000000000000        0x0 ..\..\platform\libs\libcodecs.a(dec_gain.o)
 .bss           0x0000000000000000        0x0 ..\..\platform\libs\libcodecs.a(dec_gain.o)
 .text          0x0000000000000000        0x0 ..\..\platform\libs\libcodecs.a(dec_lag3.o)
 .data          0x0000000000000000        0x0 ..\..\platform\libs\libcodecs.a(dec_lag3.o)
 .bss           0x0000000000000000        0x0 ..\..\platform\libs\libcodecs.a(dec_lag3.o)
 .text          0x0000000000000000        0x0 ..\..\platform\libs\libcodecs.a(dspfunc.o)
 .data          0x0000000000000000        0x0 ..\..\platform\libs\libcodecs.a(dspfunc.o)
 .bss           0x0000000000000000        0x0 ..\..\platform\libs\libcodecs.a(dspfunc.o)
 .text          0x0000000000000000        0x0 ..\..\platform\libs\libcodecs.a(gainpred.o)
 .data          0x0000000000000000        0x0 ..\..\platform\libs\libcodecs.a(gainpred.o)
 .bss           0x0000000000000000        0x0 ..\..\platform\libs\libcodecs.a(gainpred.o)
 .data          0x0000000000000000        0x0 ..\..\platform\libs\libcodecs.a(asf.o)
 .bss           0x0000000000000000        0x0 ..\..\platform\libs\libcodecs.a(asf.o)
 .data          0x0000000000000000        0x0 ..\..\platform\libs\libcodecs.a(bitstream.o)
 .bss           0x0000000000000000        0x0 ..\..\platform\libs\libcodecs.a(bitstream.o)
 .data          0x0000000000000000        0x0 ..\..\platform\libs\libcodecs.a(lsbc_huffman.o)
 .bss           0x0000000000000000        0x0 ..\..\platform\libs\libcodecs.a(lsbc_huffman.o)
 .text          0x0000000000000000        0x0 ..\..\platform\libs\libcodecs.a(s_windows.o)
 .data          0x0000000000000000        0x0 ..\..\platform\libs\libcodecs.a(s_windows.o)
 .bss           0x0000000000000000        0x0 ..\..\platform\libs\libcodecs.a(s_windows.o)
 .text          0x0000000000000000        0x0 ..\..\platform\libs\libcodecs.a(bit.o)
 .data          0x0000000000000000        0x0 ..\..\platform\libs\libcodecs.a(bit.o)
 .bss           0x0000000000000000        0x0 ..\..\platform\libs\libcodecs.a(bit.o)
 .data          0x0000000000000000        0x0 ..\..\platform\libs\libcodecs.a(frame.o)
 .bss           0x0000000000000000        0x0 ..\..\platform\libs\libcodecs.a(frame.o)
 .text          0x0000000000000000        0x0 ..\..\platform\libs\libcodecs.a(huffman.o)
 .data          0x0000000000000000        0x0 ..\..\platform\libs\libcodecs.a(huffman.o)
 .bss           0x0000000000000000        0x0 ..\..\platform\libs\libcodecs.a(huffman.o)
 .data          0x0000000000000000        0x0 ..\..\platform\libs\libcodecs.a(voice_changer_fixed.o)
 .bss           0x0000000000000000        0x0 ..\..\platform\libs\libcodecs.a(voice_changer_fixed.o)
 .data          0x0000000000000000        0x0 ..\..\platform\libs\libcodecs.a(adpcmdec.o)
 .bss           0x0000000000000000        0x0 ..\..\platform\libs\libcodecs.a(adpcmdec.o)
 .text          0x0000000000000000        0x0 ..\..\platform\libs\libcodecs.a(s_voice_changer.o)
 .data          0x0000000000000000        0x0 ..\..\platform\libs\libcodecs.a(s_voice_changer.o)
 .bss           0x0000000000000000        0x0 ..\..\platform\libs\libcodecs.a(s_voice_changer.o)

Memory Configuration

Name             Origin             Length             Attributes
init             0x0000000010000000 0x0000000000000200
flash            0x0000000010000200 0x000000000007c000 xr
comm             0x0000000000010c00 0x0000000000001000 xr
pdn_comm         0x0000000000011c00 0x0000000000001000 xr
stack            0x0000000000010400 0x0000000000000400
data             0x0000000000010800 0x0000000000000400
data1            0x0000000000070000 0x0000000000001000
aram             0x0000000000011c00 0x0000000000003400
aram_msc_comm    0x0000000000011c00 0x0000000000000200 xr
aram_mp3_comm    0x0000000000011e00 0x0000000000000c00 xr
aram_mp3         0x0000000000012a00 0x0000000000002600
aram_esbc_comm   0x0000000000011e00 0x0000000000002800 xr
aram_esbc        0x0000000000014600 0x0000000000000a00
aram_lsbc_comm   0x0000000000011e00 0x0000000000000800 xr
aram_lsbc        0x0000000000012600 0x0000000000002a00
aram_midi_comm   0x0000000000011e00 0x0000000000000300 xr
aram_midi        0x0000000000012100 0x0000000000002f00
aram_pitch       0x0000000000012a00 0x0000000000000a00
aram_upd         0x0000000000014600 0x0000000000000a00
*default*        0x0000000000000000 0xffffffffffffffff

Linker script and memory map

LOAD Output\obj\platform\bsp\bsp_clk.o
LOAD Output\obj\platform\bsp\bsp_cm.o
LOAD Output\obj\platform\bsp\bsp_dac.o
LOAD Output\obj\platform\bsp\bsp_ext_dump.o
LOAD Output\obj\platform\bsp\bsp_freqdet.o
LOAD Output\obj\platform\bsp\bsp_fs.o
LOAD Output\obj\platform\bsp\bsp_huart.o
LOAD Output\obj\platform\bsp\bsp_i2c.o
LOAD Output\obj\platform\bsp\bsp_ir.o
LOAD Output\obj\platform\bsp\bsp_lfs.o
LOAD Output\obj\platform\bsp\bsp_music.o
LOAD Output\obj\platform\bsp\bsp_param.o
LOAD Output\obj\platform\bsp\bsp_rtc.o
LOAD Output\obj\platform\bsp\bsp_saradc.o
LOAD Output\obj\platform\bsp\bsp_spi_audio.o
LOAD Output\obj\platform\bsp\bsp_sys.o
LOAD Output\obj\platform\bsp\bsp_timer.o
LOAD Output\obj\platform\bsp\bsp_uart.o
LOAD Output\obj\platform\bsp\bsp_user_music.o
LOAD Output\obj\platform\gui\gui.o
LOAD Output\obj\platform\gui\ledseg\ledseg_7p7s.o
LOAD Output\obj\platform\gui\ledseg\ledseg_common.o
LOAD Output\obj\platform\libs\strong_symbol.o
LOAD Output\obj\platform\modules\fft\fft_proc.o
LOAD Output\obj\platform\modules\fft\fft_table.o
LOAD Output\obj\platform\modules\key\key_scan.o
LOAD Output\obj\platform\modules\key\matrix_key.o
LOAD Output\obj\platform\modules\key\tkey.o
LOAD Output\obj\platform\modules\led\led.o
LOAD Output\obj\platform\modules\led\spi_led.o
LOAD Output\obj\platform\modules\midi\midi.o
LOAD Output\obj\platform\modules\midi\midi_keyboard.o
LOAD Output\obj\platform\modules\midi\midi_metronome.o
LOAD Output\obj\platform\modules\midi\midi_rec.o
LOAD Output\obj\platform\modules\midi\midi_song.o
LOAD Output\obj\platform\modules\midi\midi_uart.o
LOAD Output\obj\platform\modules\midi\midi_voice.o
LOAD Output\obj\platform\modules\spiflash\spiflash1.o
LOAD Output\obj\platform\modules\spiflash\spiflash1_music_bin.o
LOAD Output\obj\platform\modules\spilcd\lcd_display.o
LOAD Output\obj\platform\modules\spilcd\pic_tbl.o
LOAD Output\obj\projects\standard\config.o
LOAD Output\obj\projects\standard\display\display_idle.o
LOAD Output\obj\projects\standard\display\ledseg\display_ledseg.o
LOAD Output\obj\projects\standard\functions\func.o
LOAD Output\obj\projects\standard\functions\func_clock.o
LOAD Output\obj\projects\standard\functions\func_exspiflash_music.o
LOAD Output\obj\projects\standard\functions\func_idle.o
LOAD Output\obj\projects\standard\functions\func_lowpwr.o
LOAD Output\obj\projects\standard\functions\func_music.o
LOAD Output\obj\projects\standard\functions\func_uart_upd.o
LOAD Output\obj\projects\standard\functions\func_update.o
LOAD Output\obj\projects\standard\main.o
LOAD Output\obj\projects\standard\message\msg_clock.o
LOAD Output\obj\projects\standard\message\msg_exspiflash_music.o
LOAD Output\obj\projects\standard\message\msg_idle.o
LOAD Output\obj\projects\standard\message\msg_music.o
LOAD Output\obj\projects\standard\plugin\eq_table.o
LOAD Output\obj\projects\standard\plugin\multi_lang.o
LOAD Output\obj\projects\standard\plugin\plugin.o
LOAD Output\obj\projects\standard\port\port_init.o
LOAD Output\obj\projects\standard\port\port_ir.o
LOAD Output\obj\projects\standard\port\port_key.o
LOAD Output\obj\projects\standard\port\port_led.o
LOAD Output\obj\projects\standard\port\port_ledseg.o
LOAD Output\obj\projects\standard\port\port_mute.o
LOAD Output\obj\projects\standard\port\port_pwm.o
LOAD Output\obj\projects\standard\port\port_sd.o
LOAD Output\obj\projects\standard\port\port_sd1.o
LOAD Output\obj\projects\standard\s_start.o
                0x000000000007c000                __max_flash_size = 0x7c000
                0x0000000010000000                __base = 0x10000000
                0x0000000000010c00                __comm_vma = 0x10c00
                0x0000000000001000                __comm_ram_size = 0x1000
                0x0000000000010800                __data_vma = 0x10800
                0x0000000000000400                __data_ram_size = 0x400
                0x0000000000070000                __data1_vma = 0x70000
                0x0000000000001000                __data1_ram_size = 0x1000
                0x0000000000011c00                __aram_vma = 0x11c00
                0x0000000000003400                __aram_size = 0x3400
                0x0000000000011c00                __pdn_comm_vma = 0x11c00
                0x0000000000011c00                __aram_msc_comm_vma = 0x11c00
                0x0000000000011e00                __aram_mp3_comm_vma = 0x11e00
                0x0000000000012a00                __aram_mp3_vma = 0x12a00
                0x0000000000002600                __aram_mp3_size = 0x2600
                0x0000000000011e00                __aram_esbc_comm_vma = 0x11e00
                0x0000000000014600                __aram_esbc_vma = 0x14600
                0x0000000000000a00                __aram_esbc_size = 0xa00
                0x0000000000011e00                __aram_lsbc_comm_vma = 0x11e00
                0x0000000000012600                __aram_lsbc_vma = 0x12600
                0x0000000000002a00                __aram_lsbc_size = 0x2a00
                0x0000000000012a00                __aram_pitch_vma = 0x12a00
                0x0000000000000a00                __aram_pitch_size = 0xa00
                0x0000000000014600                __aram_upd_vma = 0x14600
                0x0000000000000a00                __aram_upd_size = 0xa00
                0x0000000000011e00                __aram_midi_comm_vma = 0x11e00
                0x0000000000012100                __aram_midi_vma = 0x12100
                0x0000000000002f00                __aram_midi_size = 0x2f00

.init           0x0000000010000000       0x44
 *(.reset)
 .reset         0x0000000010000000       0x44 Output\obj\projects\standard\s_start.o
                0x0000000010000000                _start

.comm           0x0000000000010c00      0xe00 load address 0x0000000010000200
 *(.vector)
 .vector        0x0000000000010c00       0xa8 Output\obj\projects\standard\s_start.o
                0x0000000000010ca0                nop_isr
 *(.plt)
 *(.com_text*)
 .com_text.dac  0x0000000000010ca8        0x2 Output\obj\platform\bsp\bsp_dac.o
                0x0000000000010ca8                dac_data_process
 .com_text.port.key
                0x0000000000010caa       0x48 Output\obj\platform\modules\key\key_scan.o
                0x0000000000010caa                get_adc_val
 .com_text.port.vbat
                0x0000000000010cf2       0x9e Output\obj\platform\modules\key\key_scan.o
                0x0000000000010cf2                get_vbat_val
 .com_text.bsp.key
                0x0000000000010d90       0xac Output\obj\platform\modules\key\key_scan.o
                0x0000000000010d90                get_poweron_flag
                0x0000000000010da4                set_poweron_flag
                0x0000000000010db0                bsp_key_process
                0x0000000000010db4                bsp_key_scan
 .com_text.vddio
                0x0000000000010e3c       0x14 Output\obj\projects\standard\config.o
                0x0000000000010e3c                getcfg_vddio_sel
                0x0000000000010e46                getcfg_reset_sel
 .com_text.port.key
                0x0000000000010e50        0x2 Output\obj\projects\standard\plugin\plugin.o
                0x0000000000010e50                plugin_saradc_sel_channel
 .com_text.port.vbat
                0x0000000000010e52        0x2 Output\obj\projects\standard\plugin\plugin.o
                0x0000000000010e52                plugin_vbat_filter
 .com_text.isr  0x0000000000010e54        0x4 Output\obj\projects\standard\plugin\plugin.o
                0x0000000000010e54                lvd_isr
 .com_text.key  0x0000000000010e58      0x1ce Output\obj\projects\standard\port\port_init.o
                0x0000000000010e58                keys_scan
                0x0000000000010f68                leaf_key_scan
 .com_text.seg  0x0000000000011026      0x336 Output\obj\projects\standard\port\port_init.o
                0x0000000000011026                change_common_cathode_gnd
                0x000000000001118a                set_seg7_states
                0x000000000001128a                seg_display
                0x00000000000112a8                seg7_refresh
 .com_text.timer
                0x000000000001135c       0xac Output\obj\projects\standard\port\port_init.o
                0x000000000001135c                usr_tmr5ms_isr
                0x00000000000113c0                usr_tmr1ms_isr
 *fill*         0x0000000000011408        0x0 
 .com_text.rodata
                0x0000000000011408       0x40 Output\obj\projects\standard\port\port_init.o
                0x0000000000011408                seg_pin
 .com_text.port.key
                0x0000000000011448       0xb8 Output\obj\projects\standard\port\port_key.o
                0x0000000000011448                iokey_cfg_port_pressed
                0x0000000000011462                iokey_cfg_port_out_low
                0x0000000000011484                iokey_cfg_midkey_pressed
                0x00000000000114ae                get_iokey
 .com_text.dac.vdet
                0x0000000000011500       0x9c ..\..\platform\libs\libplatform.a(dac.o)
                0x0000000000011500                dac_classd_dec_proc
 .com_text.dac  0x000000000001159c       0x9a ..\..\platform\libs\libplatform.a(gpdma.o)
                0x000000000001159e                dac_gpdma_kick
 .com_text.dac.dnr
                0x0000000000011636       0x24 ..\..\platform\libs\libplatform.a(gpdma.o)
                0x0000000000011636                dac_gpdma_reset
 .com_text.spiflash
                0x000000000001165a       0x26 ..\..\platform\libs\libplatform.a(os_flash.o)
                0x000000000001165a                os_spiflash_read
                0x0000000000011678                os_spiflash_program
                0x000000000001167c                os_spiflash_erase
 .com_text.delay
                0x0000000000011680       0x5c ..\..\platform\libs\libplatform.a(main.o)
                0x0000000000011680                delay_5ms
                0x00000000000116a4                delay_ms
                0x00000000000116c4                delay_us
 .com_text.bsp.key
                0x00000000000116dc      0x150 ..\..\platform\libs\libplatform.a(key.o)
                0x00000000000116dc                key_process
 .com_text.saradc
                0x000000000001182c       0x2c ..\..\platform\libs\libplatform.a(saradc.o)
                0x000000000001182c                saradc_kick_start
                0x000000000001184e                is_saradc_convert_finish
 .com_text.irq  0x0000000000011858       0x54 ..\..\platform\libs\libplatform.a(interrupt.o)
                0x0000000000011858                os_soft_isr
                0x0000000000011868                timer0_isr
                0x0000000000011892                tick_get
                0x000000000001189a                tick_check_expire
 .com_text.sys  0x00000000000118ac        0x6 ..\..\platform\libs\libplatform.a(s_sys.o)
                0x00000000000118ac                s_clip16
 .com_text.lsbc.proc
                0x00000000000118b2       0x16 ..\..\platform\libs\libcodecs.a(lsbc.o)
                0x00000000000118b2                lsbc_block_align_get
 .com_text.mav  0x00000000000118c8       0x24 ..\..\platform\libs\libcodecs.a(s_voice_changer.o)
                0x00000000000118c8                vcf_corr_process_s
 *(.com_rodata*)
 .com_rodata.key.table
                0x00000000000118ec        0x8 Output\obj\platform\modules\key\key_scan.o
                0x00000000000118ec                key_shake_table
 .com_rodata.multi.key
                0x00000000000118f4        0x8 ..\..\platform\libs\libplatform.a(key.o)
                0x00000000000118f4                key_multi_tbl
 *(.srodata*)
 *debug.o(.rodata*)
 *(.data*)
 .data.wav_layer_tbl
                0x00000000000118fc        0xc Output\obj\platform\bsp\bsp_music.o
                0x00000000000118fc                wav_layer_tbl
 .data.display_max_score_table
                0x0000000000011908       0x1c Output\obj\projects\standard\functions\func.o
                0x0000000000011908                display_max_score_table
 .data.seg_table
                0x0000000000011924       0x28 Output\obj\projects\standard\functions\func.o
                0x0000000000011924                seg_table
 .data.key_msgs
                0x000000000001194c        0xc Output\obj\projects\standard\port\port_init.o
                0x000000000001194c                key_msgs
 *(.sdata*)
 .sdata.gpdma_buf_size
                0x0000000000011958        0x2 Output\obj\platform\bsp\bsp_dac.o
                0x0000000000011958                gpdma_buf_size
 .sdata.spi_mp3_encrypt_key
                0x000000000001195a        0x2 Output\obj\platform\bsp\bsp_music.o
                0x000000000001195a                spi_mp3_encrypt_key
 .sdata.wav_pitchup_val
                0x000000000001195c        0x1 Output\obj\platform\bsp\bsp_music.o
                0x000000000001195c                wav_pitchup_val
 .sdata.wav_speedup_val
                0x000000000001195d        0x1 Output\obj\platform\bsp\bsp_music.o
                0x000000000001195d                wav_speedup_val
 .sdata.cfg_flash_dual_read
                0x000000000001195e        0x1 Output\obj\platform\bsp\bsp_sys.o
                0x000000000001195e                cfg_flash_dual_read
 .sdata.cfg_spiflash_speed_up_en
                0x000000000001195f        0x1 Output\obj\platform\bsp\bsp_sys.o
                0x000000000001195f                cfg_spiflash_speed_up_en
 .sdata.cfg_uart0_baud_update_en
                0x0000000000011960        0x1 Output\obj\platform\bsp\bsp_sys.o
                0x0000000000011960                cfg_uart0_baud_update_en
 .sdata.current_audio.6288
                0x0000000000011961        0x1 Output\obj\projects\standard\functions\func.o
 .sdata.leaf_music_playing.6283
                0x0000000000011962        0x1 Output\obj\projects\standard\functions\func.o
 *fill*         0x0000000000011963        0x1 
 .sdata.max_scores_reg
                0x0000000000011964        0x4 Output\obj\projects\standard\functions\func.o
                0x0000000000011964                max_scores_reg
 .sdata.off_music_play.6253
                0x0000000000011968        0x1 Output\obj\projects\standard\functions\func.o
 *fill*         0x0000000000011969        0x3 
 .sdata.real_time_scores_reg
                0x000000000001196c        0x4 Output\obj\projects\standard\functions\func.o
                0x000000000001196c                real_time_scores_reg
 .sdata.max_score_display_count_flag
                0x0000000000011970        0x1 Output\obj\projects\standard\port\port_init.o
                0x0000000000011970                max_score_display_count_flag
                0x0000000000011a00                . = ALIGN (0x200)
 *fill*         0x0000000000011971       0x8f 

.pdn_comm       0x0000000000011c00      0xa00 load address 0x0000000010001000
 *(.pdncom_text*)
 .pdncom_text.lp.sleep
                0x0000000000011c00        0x2 Output\obj\platform\libs\strong_symbol.o
                0x0000000000011c00                dcache_init_l4m
 .pdncom_text.pdn_shut
                0x0000000000011c02       0x42 Output\obj\projects\standard\functions\func_lowpwr.o
                0x0000000000011c02                pdn4_shutdown
 .pdncom_text.lp.sleep
                0x0000000000011c44      0x3c4 Output\obj\projects\standard\functions\func_lowpwr.o
                0x0000000000011c44                lp_sleep_pdn4_proc
                0x0000000000011c82                lp_wakeup_pdn4_proc
                0x0000000000011f8a                pdn4_do
 .pdncom_text.pmu
                0x0000000000012008       0x40 Output\obj\projects\standard\functions\func_lowpwr.o
                0x0000000000012008                pwroff_pmu_voltage_config
 .pdncom_text.rtc
                0x0000000000012048       0x10 Output\obj\projects\standard\functions\func_lowpwr.o
                0x0000000000012048                pwroff_rtc_core_config
 .pdncom_text.pwroff
                0x0000000000012058      0x364 Output\obj\projects\standard\functions\func_lowpwr.o
                0x0000000000012058                wk_gpio_pin_init_do
                0x0000000000012124                wk_gpio_wakeup_init_do
                0x00000000000122a6                pwroff_wk_source_config
 *(.pdncom_buf*)
 *fill*         0x00000000000123bc        0x0 
 .pdncom_buf.sleep
                0x00000000000123bc       0x78 Output\obj\projects\standard\functions\func_lowpwr.o
 .pdncom_buf.wakeup
                0x0000000000012434       0x4c Output\obj\projects\standard\functions\func_lowpwr.o
                0x0000000000012434                wk_cfg
                0x0000000000012600                . = ALIGN (0x200)
 *fill*         0x0000000000012480      0x180 

.aram_msc_comm  0x0000000000011c00      0x200 load address 0x0000000010001a00
 *(.music_text*)
 .music_text    0x0000000000011c00       0x4c Output\obj\platform\bsp\bsp_music.o
                0x0000000000011c00                layer_mode_check
                0x0000000000011c26                music_layer_play_check_all
                0x0000000000011c4a                music_pcm_out_callback
 .music_text    0x0000000000011c4c       0x16 ..\..\platform\libs\libplatform.a(dac.o)
                0x0000000000011c4c                dac_dc_exp_rise_on
 .music_text    0x0000000000011c62       0xfc ..\..\platform\libs\libplatform.a(music.o)
                0x0000000000011c62                pcm_soft_vol_process_c
                0x0000000000011cc4                layer0_play_proc
                0x0000000000011cfa                music_pcm_gpdma_kick
 *(.music_buf)
 *fill*         0x0000000000011d5e        0x2 
 .music_buf     0x0000000000011d60       0x30 Output\obj\platform\bsp\bsp_music.o
                0x0000000000011d60                msc_cb
                0x0000000000011d68                msc_layer
                0x0000000000011d88                msc_gain
 *(.ext_msc*)
                0x0000000000011e00                . = ALIGN (0x200)
 *fill*         0x0000000000011d90       0x70 

.aram_mp3_comm  0x0000000000011e00      0xc00 load address 0x0000000010001c00
 *(.mp3_text*)
 .mp3_text.mp3dec.layer3.requant
                0x0000000000011e00      0x400 ..\..\platform\libs\libcodecs.a(layer3.o)
                0x0000000000011e00                rq_table
 .mp3_text.mp3dec.synth
                0x0000000000012200      0x800 ..\..\platform\libs\libcodecs.a(synth.o)
                0x0000000000012a00                . = ALIGN (0x200)

.aram_esbc_comm
                0x0000000000011e00     0x2800 load address 0x0000000010002800
 *(.esbc.text*)
 .esbc.text.bits
                0x0000000000011e00       0x68 ..\..\platform\libs\libcodecs.a(bits.o)
                0x0000000000011e00                bits2prm_ld8k
 .esbc.text.ld8a
                0x0000000000011e68      0x214 ..\..\platform\libs\libcodecs.a(dec_ld8a.o)
                0x0000000000011e68                Decod_ld8a
 .esbc.text.lsp
                0x000000000001207c      0x1b4 ..\..\platform\libs\libcodecs.a(lpcfunc.o)
                0x000000000001207c                Get_lsp_pol
                0x000000000001212e                Lsp_Az
                0x00000000000121b8                Lsf_lsp2
 .esbc.text.lpc
                0x0000000000012230       0x46 ..\..\platform\libs\libcodecs.a(lpcfunc.o)
                0x0000000000012230                Int_qlpc
 .esbc.text.lsp
                0x0000000000012276       0xfc ..\..\platform\libs\libcodecs.a(lspdec.o)
                0x0000000000012276                Lsp_decw_reset
                0x00000000000122ac                Lsp_iqua_cs
                0x0000000000012358                D_lsp
 .esbc.text.lsp
                0x0000000000012372      0x26c ..\..\platform\libs\libcodecs.a(lspgetq.o)
                0x0000000000012372                Lsp_expand_1_2
                0x00000000000123c2                Lsp_prev_compose
                0x000000000001241c                Lsp_prev_extract
                0x0000000000012480                Lsp_prev_update
                0x00000000000124be                Lsp_stability
                0x000000000001254a                Lsp_get_quant
 .esbc.text.post
                0x00000000000125de      0x32e ..\..\platform\libs\libcodecs.a(postfilt.o)
                0x00000000000125de                Init_Post_Filter
                0x0000000000012648                pit_pst_filt
                0x0000000000012714                Post_Filter
 .esbc.text.pree
                0x000000000001290c       0x64 ..\..\platform\libs\libcodecs.a(postfilt.o)
                0x000000000001290c                preemphasis
 .esbc.text.agc
                0x0000000000012970       0xae ..\..\platform\libs\libcodecs.a(postfilt.o)
                0x0000000000012970                agc
 .esbc.text.ld8a
                0x0000000000012a1e      0x19c ..\..\platform\libs\libcodecs.a(s_cod_ld8a.o)
                0x0000000000012a1e                s_residu
                0x0000000000012a9e                s_syn_filter
                0x0000000000012b6a                s_weight_az
 .esbc.text.asm.dec
                0x0000000000012bba       0x32 ..\..\platform\libs\libcodecs.a(s_dec_ld8a.o)
                0x0000000000012bba                s_find_excitation_esbc
 .esbc.text.asm.post_pro
                0x0000000000012bec       0xcc ..\..\platform\libs\libcodecs.a(s_post_pro.o)
                0x0000000000012bec                s_Post_Process
 .esbc.text.asm.postfilt
                0x0000000000012cb8      0x192 ..\..\platform\libs\libcodecs.a(s_postfilt.o)
                0x0000000000012cb8                s_pit_pst_filt
                0x0000000000012da8                s_signal_pst_filt
                0x0000000000012dd6                s_agc_calc_gain
                0x0000000000012e0a                s_agc_out
 .esbc.text.asm.pred
                0x0000000000012e4a       0xac ..\..\platform\libs\libcodecs.a(s_pred_lt3.o)
                0x0000000000012e4a                s_Pred_lt3
 *fill*         0x0000000000012ef6        0x2 
 .esbc.text.table
                0x0000000000012ef8     0x111e ..\..\platform\libs\libcodecs.a(tab_ld8a.o)
                0x0000000000012ef8                freq_prev_reset
                0x0000000000012f0c                lsp_old_tbl
                0x0000000000012f20                past_qua_en_tbl
                0x0000000000012f28                tabsqr
                0x0000000000012f8c                tablog
                0x0000000000012fd0                tabpow
                0x0000000000013014                bitsno
                0x000000000001302c                a140
                0x0000000000013034                b140
                0x000000000001303c                a100
                0x0000000000013044                b100
                0x000000000001304c                imap2
                0x000000000001306c                imap1
                0x000000000001307c                gbk2
                0x00000000000130bc                gbk1
                0x00000000000130dc                pred
                0x00000000000130e4                inter_3l
                0x0000000000013124                fg_sum_inv
                0x000000000001314c                fg_sum
                0x0000000000013174                fg
                0x0000000000013214                lspcb2
                0x0000000000013494                lspcb1
                0x0000000000013e94                slope_cos
                0x0000000000013f14                table2
                0x0000000000013f94                table
 .esbc.text.random
                0x0000000000014016       0x30 ..\..\platform\libs\libcodecs.a(util.o)
                0x0000000000014016                Random
 .esbc.text.aeclp
                0x0000000000014046       0x88 ..\..\platform\libs\libcodecs.a(de_acelp.o)
                0x0000000000014046                Decod_ACELP
 .esbc.text.decgain
                0x00000000000140ce       0xf6 ..\..\platform\libs\libcodecs.a(dec_gain.o)
                0x00000000000140ce                Dec_gain
 .esbc.text.lag3
                0x00000000000141c4       0xca ..\..\platform\libs\libcodecs.a(dec_lag3.o)
                0x00000000000141c4                Dec_lag3
 .esbc.text.log2
                0x000000000001428e       0x76 ..\..\platform\libs\libcodecs.a(dspfunc.o)
                0x000000000001428e                Log2
 .esbc.text.sqrt
                0x0000000000014304       0x7e ..\..\platform\libs\libcodecs.a(dspfunc.o)
                0x0000000000014304                Inv_sqrt
 .esbc.text.pre
                0x0000000000014382       0xbc ..\..\platform\libs\libcodecs.a(gainpred.o)
                0x0000000000014382                Gain_predict
 .esbc.text.upd
                0x000000000001443e       0x56 ..\..\platform\libs\libcodecs.a(gainpred.o)
                0x000000000001443e                Gain_update
 .esbc.text.era
                0x0000000000014494       0x58 ..\..\platform\libs\libcodecs.a(gainpred.o)
                0x0000000000014494                Gain_update_erasure
                0x0000000000014600                . = ALIGN (0x200)
 *fill*         0x00000000000144ec      0x114 

.aram_lsbc_comm
                0x0000000000011e00      0x800 load address 0x0000000010005000
 *(.lsbc_text*)
 .lsbc_text.dec
                0x0000000000011e00       0x14 ..\..\platform\libs\libplatform.a(codecs_pcm.o)
                0x0000000000011e00                lsbc_dec_pcm_out_cb
 .lsbc_text.imdct
                0x0000000000011e14      0x248 ..\..\platform\libs\libcodecs.a(mdct.o)
                0x0000000000011e14                fprvFFT4DCT
 .lsbc_text.asm.imdct
                0x000000000001205c      0x262 ..\..\platform\libs\libcodecs.a(s_imdct.o)
                0x000000000001205c                ff_imdct_calc_s
 .lsbc_text.asm.deci
                0x00000000000122be       0x1c ..\..\platform\libs\libcodecs.a(s_wmadec.o)
                0x00000000000122be                __ashldi3
                0x00000000000122cc                __ashrdi3
 .lsbc_text.asm.windows
                0x00000000000122da      0x322 ..\..\platform\libs\libcodecs.a(s_windows.o)
                0x00000000000122da                lsbc_window_s
                0x0000000000012600                . = ALIGN (0x200)
 *fill*         0x00000000000125fc        0x4 

.aram_midi_comm
                0x0000000000011e00        0x0 load address 0x0000000010005800
 *(.midi_text*)
                0x0000000000011e00                . = ALIGN (0x200)

.flash          0x0000000010005800     0xf400
                0x0000000010005800                __code_start_update = .
 *(.text.update*)
 .text.update_sd0baud
                0x0000000010005800       0x56 ..\..\platform\libs\libplatform.a(sys_clk.o)
                0x0000000010005800                update_sd0baud
                0x0000000010005a00                . = ALIGN (0x200)
 *fill*         0x0000000010005856      0x1aa 
                0x0000000010005a00                __code_end_update = .
                0x0000000010005a00                __code_start_drc = .
 *(.drc_text*)
 .drc_text.drc_proc
                0x0000000010005a00        0x4 Output\obj\platform\libs\strong_symbol.o
                0x0000000010005a00                drc_v3_calc
 *(.drc_rodata*)
                0x0000000010005c00                . = ALIGN (0x200)
 *fill*         0x0000000010005a04      0x1fc 
                0x0000000010005c00                __code_end_drc = .
                0x0000000010005c00                __code_start_lsbcdec = .
                0x0000000010005c00                . = ALIGN (0x200)
                0x0000000010005c00                __code_end_lsbcdec = .
 *(.text*)
 .text.clk_clk32k_rtc_set
                0x0000000010005c00       0x18 Output\obj\platform\bsp\bsp_clk.o
                0x0000000010005c00                clk_clk32k_rtc_set
 .text.cm_loadparam
                0x0000000010005c18        0x4 Output\obj\platform\bsp\bsp_cm.o
                0x0000000010005c18                cm_loadparam
 .text.cm_factory
                0x0000000010005c1c       0x5e Output\obj\platform\bsp\bsp_cm.o
                0x0000000010005c1c                cm_factory
 .text.bsp.dac  0x0000000010005c7a       0x82 Output\obj\platform\bsp\bsp_dac.o
                0x0000000010005c7a                bsp_change_volume
                0x0000000010005cb8                dac_set_vol_table
                0x0000000010005ce6                dac_init
 .text.soft_fade_process
                0x0000000010005cfc       0xe8 Output\obj\platform\bsp\bsp_dac.o
                0x0000000010005cfc                soft_fade_process
 .text.music_res_init
                0x0000000010005de4       0x58 Output\obj\platform\bsp\bsp_music.o
                0x0000000010005de4                music_res_init
 .text.music_layer_mode_set
                0x0000000010005e3c       0x22 Output\obj\platform\bsp\bsp_music.o
                0x0000000010005e3c                music_layer_mode_set
 .text.music_layer_mode_clr
                0x0000000010005e5e       0x1e Output\obj\platform\bsp\bsp_music.o
                0x0000000010005e5e                music_layer_mode_clr
 .text.music_layer_sta_set
                0x0000000010005e7c       0x14 Output\obj\platform\bsp\bsp_music.o
                0x0000000010005e7c                music_layer_sta_set
 .text.music_mode_enter
                0x0000000010005e90       0xdc Output\obj\platform\bsp\bsp_music.o
                0x0000000010005e90                music_mode_enter
 .text.music_mode_exit
                0x0000000010005f6c       0x40 Output\obj\platform\bsp\bsp_music.o
                0x0000000010005f6c                music_mode_exit
 .text.music_layer_sta_get
                0x0000000010005fac        0xe Output\obj\platform\bsp\bsp_music.o
                0x0000000010005fac                music_layer_sta_get
 .text.mp3_song_play
                0x0000000010005fba       0x22 Output\obj\platform\bsp\bsp_music.o
                0x0000000010005fba                mp3_song_play
 .text.mp3_song_play_end
                0x0000000010005fdc       0x16 Output\obj\platform\bsp\bsp_music.o
                0x0000000010005fdc                mp3_song_play_end
 .text.esbc_song_play_end
                0x0000000010005ff2       0x18 Output\obj\platform\bsp\bsp_music.o
                0x0000000010005ff2                esbc_song_play_end
 .text.lsbc_song_play_end
                0x000000001000600a        0x6 Output\obj\platform\bsp\bsp_music.o
                0x000000001000600a                lsbc_song_play_end
 .text.wav_song_play
                0x0000000010006010       0x36 Output\obj\platform\bsp\bsp_music.o
                0x0000000010006010                wav_song_play
 .text.wav_song_play_end
                0x0000000010006046       0x2c Output\obj\platform\bsp\bsp_music.o
                0x0000000010006046                wav_song_play_end
 .text.wav_dec_proc
                0x0000000010006072       0x4e Output\obj\platform\bsp\bsp_music.o
                0x0000000010006072                wav_dec_proc
 .text.lsbc_song_dec_proc
                0x00000000100060c0       0x2e Output\obj\platform\bsp\bsp_music.o
                0x00000000100060c0                lsbc_song_dec_proc
 .text.mp3_song_dec_proc
                0x00000000100060ee       0x30 Output\obj\platform\bsp\bsp_music.o
                0x00000000100060ee                mp3_song_dec_proc
 .text.esbc_song_dec_proc
                0x000000001000611e       0x3c Output\obj\platform\bsp\bsp_music.o
                0x000000001000611e                esbc_song_dec_proc
 *fill*         0x000000001000615a       0xa6 
 .text.music_decode_process
                0x0000000010006200      0x1da Output\obj\platform\bsp\bsp_music.o
                0x0000000010006200                music_decode_process
 .text.bsp.param
                0x00000000100063da       0x96 Output\obj\platform\bsp\bsp_param.o
                0x00000000100063da                bsp_param_write
                0x00000000100063de                bsp_param_read
                0x00000000100063e2                bsp_param_sync
                0x00000000100063e6                param_msc_num_write
                0x00000000100063e8                param_msc_num_read
                0x00000000100063ea                param_sys_vol_write
                0x00000000100063f8                param_sys_vol_read
                0x0000000010006406                param_init
                0x0000000010006450                param_lang_id_write
                0x000000001000645e                param_lang_id_read
                0x000000001000646c                param_sync
 .text.rtc_clr_alarm
                0x0000000010006470        0x8 Output\obj\platform\bsp\bsp_rtc.o
                0x0000000010006470                rtc_clr_alarm
 .text.rtc_prescale_set
                0x0000000010006478       0x1a Output\obj\platform\bsp\bsp_rtc.o
                0x0000000010006478                rtc_prescale_set
 .text.sys_ram_info_dump
                0x0000000010006492        0x2 Output\obj\platform\bsp\bsp_sys.o
                0x0000000010006492                sys_ram_info_dump
 .text.bsp.sys.init
                0x0000000010006494       0x44 Output\obj\platform\bsp\bsp_sys.o
                0x0000000010006494                rtc_init
                0x00000000100064d4                bsp_compiler
 .text.uart0_mapping_sel
                0x00000000100064d8       0x44 Output\obj\platform\bsp\bsp_sys.o
                0x00000000100064d8                uart0_mapping_sel
 .text.mclr_reset_init
                0x000000001000651c       0x26 Output\obj\platform\bsp\bsp_sys.o
                0x000000001000651c                mclr_reset_init
 .text.platform_main_insert
                0x0000000010006542        0x2 Output\obj\platform\bsp\bsp_sys.o
                0x0000000010006542                platform_main_insert
 .text.magic_voice_init
                0x0000000010006544        0x2 Output\obj\platform\libs\strong_symbol.o
                0x0000000010006544                magic_voice_init
 .text.magic_voice_process
                0x0000000010006546        0x2 Output\obj\platform\libs\strong_symbol.o
                0x0000000010006546                magic_voice_process
 .text.wav2_spi_stream_read
                0x0000000010006548        0x4 Output\obj\platform\libs\strong_symbol.o
                0x0000000010006548                wav2_spi_stream_read
 .text.wav2_spi_stream_seek
                0x000000001000654c        0x4 Output\obj\platform\libs\strong_symbol.o
                0x000000001000654c                wav2_spi_stream_seek
 .text.get_wav2_res_ptr
                0x0000000010006550        0x4 Output\obj\platform\libs\strong_symbol.o
                0x0000000010006550                get_wav2_res_ptr
 .text.wav3_spi_stream_read
                0x0000000010006554        0x4 Output\obj\platform\libs\strong_symbol.o
                0x0000000010006554                wav3_spi_stream_read
 .text.wav3_spi_stream_seek
                0x0000000010006558        0x4 Output\obj\platform\libs\strong_symbol.o
                0x0000000010006558                wav3_spi_stream_seek
 .text.get_wav3_res_ptr
                0x000000001000655c        0x4 Output\obj\platform\libs\strong_symbol.o
                0x000000001000655c                get_wav3_res_ptr
 .text.dcache_init
                0x0000000010006560        0x2 Output\obj\platform\libs\strong_symbol.o
                0x0000000010006560                dcache_init
 .text.mic_eq_proc
                0x0000000010006562        0x4 Output\obj\platform\libs\strong_symbol.o
                0x0000000010006562                mic_eq_proc
 .text.vddio_follow_vbat_process
                0x0000000010006566       0x6a Output\obj\platform\modules\key\key_scan.o
                0x0000000010006566                vddio_follow_vbat_process
 .text.init     0x00000000100065d0       0xb2 Output\obj\platform\modules\key\key_scan.o
                0x00000000100065d0                bsp_saradc_init
 .text.is_lowpower_vbat_warning
                0x0000000010006682       0x44 Output\obj\platform\modules\key\key_scan.o
                0x0000000010006682                is_lowpower_vbat_warning
 .text.lowpower_vbat_process
                0x00000000100066c6       0xb4 Output\obj\platform\modules\key\key_scan.o
                0x00000000100066c6                lowpower_vbat_process
 .text.bsp.power
                0x000000001000677a       0x54 Output\obj\platform\modules\key\key_scan.o
                0x000000001000677a                is_powron_frist_enable
                0x0000000010006784                power_on_check
 .text.bsp.key.init
                0x00000000100067ce       0x3c Output\obj\platform\modules\key\key_scan.o
                0x00000000100067ce                key_init
 .text.check_key_return
                0x000000001000680a        0x4 Output\obj\platform\modules\key\key_scan.o
                0x000000001000680a                check_key_return
 .text.bsp.key  0x000000001000680e       0x1a Output\obj\platform\modules\key\key_scan.o
                0x000000001000680e                get_pwroff_pressed_time
                0x0000000010006822                get_double_key_time
 .text.get_wav_fix_spr
                0x0000000010006828        0x4 Output\obj\projects\standard\config.o
                0x0000000010006828                get_wav_fix_spr
 .text.func.process
                0x000000001000682c       0x50 Output\obj\projects\standard\functions\func.o
                0x000000001000682c                print_info
                0x0000000010006860                func_process
 .text.num_to_digit
                0x000000001000687c       0x5c Output\obj\projects\standard\functions\func.o
                0x000000001000687c                num_to_digit
 .text.lamp_flickering_3
                0x00000000100068d8       0x20 Output\obj\projects\standard\functions\func.o
                0x00000000100068d8                lamp_flickering_3
 .text.lamp_flickering_start
                0x00000000100068f8       0x28 Output\obj\projects\standard\functions\func.o
                0x00000000100068f8                lamp_flickering_start
 .text.lamp_flickering_stop
                0x0000000010006920       0x26 Output\obj\projects\standard\functions\func.o
                0x0000000010006920                lamp_flickering_stop
 .text.lamp_filckering
                0x0000000010006946       0x6e Output\obj\projects\standard\functions\func.o
                0x0000000010006946                lamp_filckering
 .text.seg_display_stop
                0x00000000100069b4       0x38 Output\obj\projects\standard\functions\func.o
                0x00000000100069b4                seg_display_stop
 .text.clear_realtime_scores
                0x00000000100069ec       0x18 Output\obj\projects\standard\functions\func.o
                0x00000000100069ec                clear_realtime_scores
 .text.clear_max_scores
                0x0000000010006a04       0x18 Output\obj\projects\standard\functions\func.o
                0x0000000010006a04                clear_max_scores
 .text.seg_display_max_score
                0x0000000010006a1c       0x46 Output\obj\projects\standard\functions\func.o
                0x0000000010006a1c                seg_display_max_score
 .text.gpio_init
                0x0000000010006a62      0x368 Output\obj\projects\standard\functions\func.o
                0x0000000010006a62                gpio_init
 .text.device_init
                0x0000000010006dca       0xaa Output\obj\projects\standard\functions\func.o
                0x0000000010006dca                device_init
 .text.auto_shutdown_process
                0x0000000010006e74       0x92 Output\obj\projects\standard\functions\func.o
                0x0000000010006e74                auto_shutdown_process
 .text.power_process
                0x0000000010006f06       0xfc Output\obj\projects\standard\functions\func.o
                0x0000000010006f06                power_process
 .text.clear_score_process
                0x0000000010007002       0x40 Output\obj\projects\standard\functions\func.o
                0x0000000010007002                clear_score_process
 .text.cycle_play
                0x0000000010007042       0x22 Output\obj\projects\standard\functions\func.o
                0x0000000010007042                cycle_play
 .text.loop_bgm_process
                0x0000000010007064       0x40 Output\obj\projects\standard\functions\func.o
                0x0000000010007064                loop_bgm_process
 .text.show_high_score_process
                0x00000000100070a4       0x40 Output\obj\projects\standard\functions\func.o
                0x00000000100070a4                show_high_score_process
 .text.clear_high_score_process
                0x00000000100070e4       0x44 Output\obj\projects\standard\functions\func.o
                0x00000000100070e4                clear_high_score_process
 *fill*         0x0000000010007128        0x0 
 .text.leaf_play
                0x0000000010007128       0x96 Output\obj\projects\standard\functions\func.o
                0x0000000010007128                leaf_play
 .text.leaf_process
                0x00000000100071be      0x134 Output\obj\projects\standard\functions\func.o
                0x00000000100071be                leaf_process
 .text.user_main
                0x00000000100072f2       0x28 Output\obj\projects\standard\functions\func.o
                0x00000000100072f2                user_main
 .text.lowpwr_get_wakeup_source
                0x000000001000731a       0x1e Output\obj\projects\standard\functions\func_lowpwr.o
                0x000000001000731a                lowpwr_get_wakeup_source
 .text.pdn4_back_init
                0x0000000010007338       0x7a Output\obj\projects\standard\functions\func_lowpwr.o
                0x0000000010007338                pdn4_back_init
 .text.pwron_fall_set_do
                0x00000000100073b2       0x84 Output\obj\projects\standard\functions\func_lowpwr.o
                0x00000000100073b2                pwron_fall_set_do
 .text.pwron_rise_set_do
                0x0000000010007436       0x84 Output\obj\projects\standard\functions\func_lowpwr.o
                0x0000000010007436                pwron_rise_set_do
 .text.wku_io_fall_set_do
                0x00000000100074ba      0x174 Output\obj\projects\standard\functions\func_lowpwr.o
                0x00000000100074ba                wku_io_fall_set_do
 .text.wku_io_rise_set_do
                0x000000001000762e      0x174 Output\obj\projects\standard\functions\func_lowpwr.o
                0x000000001000762e                wku_io_rise_set_do
 .text.set_all_pin_off
                0x00000000100077a2       0x1e Output\obj\projects\standard\functions\func_lowpwr.o
                0x00000000100077a2                set_all_pin_off
 .text.lowpwr.pdn
                0x00000000100077c0      0x184 Output\obj\projects\standard\functions\func_lowpwr.o
                0x00000000100077c0                pdn4
 .text.lowpwr.pwroff
                0x0000000010007944       0x7a Output\obj\projects\standard\functions\func_lowpwr.o
                0x0000000010007944                pwroff_do
                0x0000000010007946                sfunc_pwroff
                0x00000000100079a2                func_pwroff
 *fill*         0x00000000100079be       0x42 
 .text.lowpwr.lowbat
                0x0000000010007a00      0x5b0 Output\obj\projects\standard\functions\func_lowpwr.o
                0x0000000010007a00                sfunc_lowbat_do
                0x0000000010007dcc                sfunc_lowbat
 .text.lowpwr.dac_off
                0x0000000010007fb0       0x22 Output\obj\projects\standard\functions\func_lowpwr.o
                0x0000000010007fb0                sfunc_dac_off
 .text.startup.main
                0x0000000010007fd2       0x26 Output\obj\projects\standard\main.o
                0x0000000010007fd2                main
 .text.plugin_init
                0x0000000010007ff8       0x12 Output\obj\projects\standard\plugin\plugin.o
                0x0000000010007ff8                plugin_init
 .text.plugin_var_init
                0x000000001000800a        0x2 Output\obj\projects\standard\plugin\plugin.o
                0x000000001000800a                plugin_var_init
 .text.plugin_saradc_init
                0x000000001000800c        0x2 Output\obj\projects\standard\plugin\plugin.o
                0x000000001000800c                plugin_saradc_init
 .text.plugin_lowbat_vol_reduce
                0x000000001000800e        0x2 Output\obj\projects\standard\plugin\plugin.o
                0x000000001000800e                plugin_lowbat_vol_reduce
 .text.plugin_lowbat_vol_recover
                0x0000000010008010        0x2 Output\obj\projects\standard\plugin\plugin.o
                0x0000000010008010                plugin_lowbat_vol_recover
 .text.bsp.sys.init
                0x0000000010008012      0x134 Output\obj\projects\standard\port\port_init.o
                0x000000001000807c                power_on_off_init
                0x000000001000807e                bsp_update_init
                0x00000000100080d6                bsp_sys_init
 .text.key.init
                0x0000000010008146      0x142 Output\obj\projects\standard\port\port_key.o
                0x0000000010008146                iokey_cfg_port_init
                0x0000000010008168                io_key_init
 .text.adpll_init
                0x0000000010008288       0x82 ..\..\platform\libs\libplatform.a(audio.o)
                0x0000000010008288                adpll_init
 .text.dac_cb_init
                0x000000001000830a       0x1a ..\..\platform\libs\libplatform.a(dac.o)
                0x000000001000830a                dac_cb_init
 .text.dac      0x0000000010008324      0x1ea ..\..\platform\libs\libplatform.a(dac.o)
                0x0000000010008324                dac_set_dvol
                0x0000000010008342                dac_spr_set
 .text.dac_power_on
                0x000000001000850e       0x80 ..\..\platform\libs\libplatform.a(dac.o)
                0x000000001000850e                dac_power_on
 .text.dac_fade
                0x000000001000858e      0x116 ..\..\platform\libs\libplatform.a(dac.o)
                0x000000001000858e                dac_fade_out
                0x000000001000862c                dac_fade_in
 .text.dac_analg_off
                0x00000000100086a4       0x32 ..\..\platform\libs\libplatform.a(dac.o)
                0x00000000100086a4                dac_analg_off
 .text.dac_analg_on
                0x00000000100086d6       0x34 ..\..\platform\libs\libplatform.a(dac.o)
                0x00000000100086d6                dac_analg_on
 .text.dac_dc_exp_off
                0x000000001000870a       0x34 ..\..\platform\libs\libplatform.a(dac.o)
                0x000000001000870a                dac_dc_exp_off
 .text.dac_gpdma_is_ready
                0x000000001000873e       0x18 ..\..\platform\libs\libplatform.a(gpdma.o)
                0x000000001000873e                dac_gpdma_is_ready
 .text.cm_next_freepage
                0x0000000010008756       0x26 ..\..\platform\libs\libplatform.a(cm.o)
 .text.cm_loadpage
                0x000000001000877c       0x16 ..\..\platform\libs\libplatform.a(cm.o)
 .text.cm_movepage
                0x0000000010008792       0x3c ..\..\platform\libs\libplatform.a(cm.o)
 .text.cm_release
                0x00000000100087ce       0x5e ..\..\platform\libs\libplatform.a(cm.o)
 .text.cm_write_cfgpage
                0x000000001000882c       0x6c ..\..\platform\libs\libplatform.a(cm.o)
 .text.cm_check_loadpage
                0x0000000010008898       0x84 ..\..\platform\libs\libplatform.a(cm.o)
 .text.cm_check_page
                0x000000001000891c       0x6c ..\..\platform\libs\libplatform.a(cm.o)
 .text.cm_sync  0x0000000010008988       0x1a ..\..\platform\libs\libplatform.a(cm.o)
                0x0000000010008988                cm_sync
 .text.cm_read  0x00000000100089a2       0x2a ..\..\platform\libs\libplatform.a(cm.o)
                0x00000000100089a2                cm_read
 .text.cm_write
                0x00000000100089cc       0x32 ..\..\platform\libs\libplatform.a(cm.o)
                0x00000000100089cc                cm_write
 .text.cm_init  0x00000000100089fe      0x1b6 ..\..\platform\libs\libplatform.a(cm.o)
                0x00000000100089fe                cm_init
 .text.xcfg_init
                0x0000000010008bb4       0x54 ..\..\platform\libs\libplatform.a(xcfg.o)
                0x0000000010008bb4                xcfg_init
 .text.sys_set_tmr_enable
                0x0000000010008c08        0x8 ..\..\platform\libs\libplatform.a(main.o)
                0x0000000010008c08                sys_set_tmr_enable
 .text.platform_main
                0x0000000010008c10      0x130 ..\..\platform\libs\libplatform.a(main.o)
                0x0000000010008c10                platform_main
 .text.wav_dec_pcm_out_cb
                0x0000000010008d40        0x4 ..\..\platform\libs\libplatform.a(codecs_pcm.o)
                0x0000000010008d40                wav_dec_pcm_out_cb
 .text.esbc_dec_pcm_out_cb
                0x0000000010008d44        0x2 ..\..\platform\libs\libplatform.a(codecs_pcm.o)
                0x0000000010008d44                esbc_dec_pcm_out_cb
 .text.mp3_dec_pcm_out_cb
                0x0000000010008d46        0x2 ..\..\platform\libs\libplatform.a(codecs_pcm.o)
                0x0000000010008d46                mp3_dec_pcm_out_cb
 .text.lsbc_dec_pcm_out_cb_do
                0x0000000010008d48       0x56 ..\..\platform\libs\libplatform.a(codecs_pcm.o)
                0x0000000010008d48                lsbc_dec_pcm_out_cb_do
 .text.lsbc_skip_pcm_frame
                0x0000000010008d9e       0x2c ..\..\platform\libs\libplatform.a(codecs_pcm.o)
                0x0000000010008d9e                lsbc_skip_pcm_frame
 .text.lsbc_dec_pause_do
                0x0000000010008dca       0x28 ..\..\platform\libs\libplatform.a(codecs_pcm.o)
                0x0000000010008dca                lsbc_dec_pause_do
 .text.wav_dec_pause_do
                0x0000000010008df2       0x2a ..\..\platform\libs\libplatform.a(codecs_pcm.o)
                0x0000000010008df2                wav_dec_pause_do
 .text.mp3_dec_pause_do
                0x0000000010008e1c       0x28 ..\..\platform\libs\libplatform.a(codecs_pcm.o)
                0x0000000010008e1c                mp3_dec_pause_do
 .text.esbc_dec_pause_do
                0x0000000010008e44       0x28 ..\..\platform\libs\libplatform.a(codecs_pcm.o)
                0x0000000010008e44                esbc_dec_pause_do
 .text.music_cb_reset
                0x0000000010008e6c       0x1e ..\..\platform\libs\libplatform.a(music.o)
                0x0000000010008e6c                music_cb_reset
 .text.music_set_total_time
                0x0000000010008e8a        0xa ..\..\platform\libs\libplatform.a(music.o)
                0x0000000010008e8a                music_set_total_time
 .text.music_set_cur_time
                0x0000000010008e94        0xa ..\..\platform\libs\libplatform.a(music.o)
                0x0000000010008e94                music_set_cur_time
 .text.spi_mp3_decode_init
                0x0000000010008e9e       0x44 ..\..\platform\libs\libplatform.a(music.o)
                0x0000000010008e9e                spi_mp3_decode_init
 .text.spi_wav_decode_init
                0x0000000010008ee2       0x5a ..\..\platform\libs\libplatform.a(music.o)
                0x0000000010008ee2                spi_wav_decode_init
 .text.set_lsbc_dec_sta
                0x0000000010008f3c       0x14 ..\..\platform\libs\libplatform.a(music.o)
                0x0000000010008f3c                set_lsbc_dec_sta
 .text.get_lsbc_dec_sta
                0x0000000010008f50        0x8 ..\..\platform\libs\libplatform.a(music.o)
                0x0000000010008f50                get_lsbc_dec_sta
 .text.get_music_dec_sta
                0x0000000010008f58        0xa ..\..\platform\libs\libplatform.a(music.o)
                0x0000000010008f58                get_music_dec_sta
 .text.music_control
                0x0000000010008f62       0x18 ..\..\platform\libs\libplatform.a(music.o)
                0x0000000010008f62                music_control
 .text.pcm_out_cb_merge_do
                0x0000000010008f7a       0x5a ..\..\platform\libs\libplatform.a(music.o)
                0x0000000010008f7a                pcm_out_cb_merge_do
 .text.get_layer0_busy
                0x0000000010008fd4        0xc ..\..\platform\libs\libplatform.a(music.o)
                0x0000000010008fd4                get_layer0_busy
 .text.set_layer0_busy
                0x0000000010008fe0       0x20 ..\..\platform\libs\libplatform.a(music.o)
                0x0000000010008fe0                set_layer0_busy
 .text.get_layer_busy
                0x0000000010009000       0x48 ..\..\platform\libs\libplatform.a(music.o)
                0x0000000010009000                get_layer_busy
 .text.set_layer_busy
                0x0000000010009048       0x68 ..\..\platform\libs\libplatform.a(music.o)
                0x0000000010009048                set_layer_busy
 .text.set_layer0_fade
                0x00000000100090b0       0x34 ..\..\platform\libs\libplatform.a(music.o)
                0x00000000100090b0                set_layer0_fade
 .text.get_lay0_fade_out_frame_num
                0x00000000100090e4        0xa ..\..\platform\libs\libplatform.a(music.o)
                0x00000000100090e4                get_lay0_fade_out_frame_num
 .text.set_lay0_fade_out_start
                0x00000000100090ee       0x16 ..\..\platform\libs\libplatform.a(music.o)
                0x00000000100090ee                set_lay0_fade_out_start
 .text.get_lay0_fade_out_start
                0x0000000010009104        0xa ..\..\platform\libs\libplatform.a(music.o)
                0x0000000010009104                get_lay0_fade_out_start
 .text.set_layer1_fade
                0x000000001000910e       0x34 ..\..\platform\libs\libplatform.a(music.o)
                0x000000001000910e                set_layer1_fade
 .text.get_lay1_fade_out_frame_num
                0x0000000010009142        0xa ..\..\platform\libs\libplatform.a(music.o)
                0x0000000010009142                get_lay1_fade_out_frame_num
 .text.set_lay1_fade_out_start
                0x000000001000914c       0x16 ..\..\platform\libs\libplatform.a(music.o)
                0x000000001000914c                set_lay1_fade_out_start
 .text.get_lay1_fade_out_start
                0x0000000010009162        0xa ..\..\platform\libs\libplatform.a(music.o)
                0x0000000010009162                get_lay1_fade_out_start
 .text.pcm_soft_fade_in
                0x000000001000916c       0x3e ..\..\platform\libs\libplatform.a(music.o)
                0x000000001000916c                pcm_soft_fade_in
 .text.pcm_soft_fade_out
                0x00000000100091aa       0x48 ..\..\platform\libs\libplatform.a(music.o)
                0x00000000100091aa                pcm_soft_fade_out
 .text.music_lay0_pcm_out_fade
                0x00000000100091f2       0x68 ..\..\platform\libs\libplatform.a(music.o)
                0x00000000100091f2                music_lay0_pcm_out_fade
 .text.layer0_mp3_proc
                0x000000001000925a       0x50 ..\..\platform\libs\libplatform.a(music.o)
                0x000000001000925a                layer0_mp3_proc
 .text.pcm_out_cb_merge_mp3
                0x00000000100092aa       0x76 ..\..\platform\libs\libplatform.a(music.o)
                0x00000000100092aa                pcm_out_cb_merge_mp3
 .text.pcm_out_cb_merge_midi
                0x0000000010009320       0x68 ..\..\platform\libs\libplatform.a(music.o)
                0x0000000010009320                pcm_out_cb_merge_midi
 .text.pcm_out_cb_merge_esbc
                0x0000000010009388        0x4 ..\..\platform\libs\libplatform.a(music.o)
                0x0000000010009388                pcm_out_cb_merge_esbc
 .text.pcm_out_cb_merge_lsbc
                0x000000001000938c       0x6e ..\..\platform\libs\libplatform.a(music.o)
                0x000000001000938c                pcm_out_cb_merge_lsbc
 .text.music_lay1_pcm_out_fade
                0x00000000100093fa       0x68 ..\..\platform\libs\libplatform.a(music.o)
                0x00000000100093fa                music_lay1_pcm_out_fade
 .text.pcm_out_cb_merge_wav
                0x0000000010009462       0x98 ..\..\platform\libs\libplatform.a(music.o)
                0x0000000010009462                pcm_out_cb_merge_wav
 .text.spires_get_len
                0x00000000100094fa        0x8 ..\..\platform\libs\libplatform.a(music_res.o)
                0x00000000100094fa                spires_get_len
 .text.spi_res_decrypt
                0x0000000010009502       0x58 ..\..\platform\libs\libplatform.a(music_res.o)
                0x0000000010009502                spi_res_decrypt
 .text.flash_or_ex_read
                0x000000001000955a       0x18 ..\..\platform\libs\libplatform.a(music_res.o)
                0x000000001000955a                flash_or_ex_read
 .text.spi_stream_read
                0x0000000010009572      0x158 ..\..\platform\libs\libplatform.a(music_res.o)
                0x0000000010009572                spi_stream_read
 .text.get_msc_loop_cnt
                0x00000000100096ca        0x8 ..\..\platform\libs\libplatform.a(music_res.o)
                0x00000000100096ca                get_msc_loop_cnt
 .text.spi_stream_seek
                0x00000000100096d2       0x24 ..\..\platform\libs\libplatform.a(music_res.o)
                0x00000000100096d2                spi_stream_seek
 .text.spi_save_file_info
                0x00000000100096f6        0xe ..\..\platform\libs\libplatform.a(music_res.o)
                0x00000000100096f6                spi_save_file_info
 .text.spi_load_file_info
                0x0000000010009704       0x10 ..\..\platform\libs\libplatform.a(music_res.o)
                0x0000000010009704                spi_load_file_info
 .text.wav_wait_fade_out
                0x0000000010009714       0x3e ..\..\platform\libs\libplatform.a(music_res.o)
                0x0000000010009714                wav_wait_fade_out
 .text.mp3_wait_fade_out
                0x0000000010009752       0x58 ..\..\platform\libs\libplatform.a(music_res.o)
                0x0000000010009752                mp3_wait_fade_out
 .text.mp3_res_play_init
                0x00000000100097aa      0x106 ..\..\platform\libs\libplatform.a(music_res.o)
                0x00000000100097aa                mp3_res_play_init
 .text.mp3_res_play_kick
                0x00000000100098b0       0x5c ..\..\platform\libs\libplatform.a(music_res.o)
                0x00000000100098b0                mp3_res_play_kick
 .text.wav_spi_stream_read
                0x000000001000990c       0x62 ..\..\platform\libs\libplatform.a(music_res.o)
                0x000000001000990c                wav_spi_stream_read
 .text.wav1_get_loop_cnt
                0x000000001000996e        0x8 ..\..\platform\libs\libplatform.a(music_res.o)
                0x000000001000996e                wav1_get_loop_cnt
 .text.spi_stream_seek_do
                0x0000000010009976       0x1e ..\..\platform\libs\libplatform.a(music_res.o)
                0x0000000010009976                spi_stream_seek_do
 .text.wav1_spi_stream_read
                0x0000000010009994        0xe ..\..\platform\libs\libplatform.a(music_res.o)
                0x0000000010009994                wav1_spi_stream_read
 .text.wav1_spi_stream_seek
                0x00000000100099a2        0xe ..\..\platform\libs\libplatform.a(music_res.o)
                0x00000000100099a2                wav1_spi_stream_seek
 .text.get_wav1_res_ptr
                0x00000000100099b0        0x8 ..\..\platform\libs\libplatform.a(music_res.o)
                0x00000000100099b0                get_wav1_res_ptr
 .text.wav_res_play_init
                0x00000000100099b8       0xc0 ..\..\platform\libs\libplatform.a(music_res.o)
                0x00000000100099b8                wav_res_play_init
 .text.wav_res_play_kick
                0x0000000010009a78       0x1e ..\..\platform\libs\libplatform.a(music_res.o)
                0x0000000010009a78                wav_res_play_kick
 .text.gpio_cfg_init
                0x0000000010009a96       0x48 ..\..\platform\libs\libplatform.a(gpio.o)
                0x0000000010009a96                gpio_cfg_init
 .text.bsp.key.init
                0x0000000010009ade       0x6e ..\..\platform\libs\libplatform.a(key.o)
                0x0000000010009ade                key_var_init
 .text.getcfg_vddio_val_ofs
                0x0000000010009b4c       0x20 ..\..\platform\libs\libplatform.a(pmu.o)
                0x0000000010009b4c                getcfg_vddio_val_ofs
 .text.get_cur_vddio_vol
                0x0000000010009b6c       0x18 ..\..\platform\libs\libplatform.a(pmu.o)
                0x0000000010009b6c                get_cur_vddio_vol
 .text.vddio_voltage_update
                0x0000000010009b84       0x9c ..\..\platform\libs\libplatform.a(pmu.o)
                0x0000000010009b84                vddio_voltage_update
 .text.vddio_voltage_configure
                0x0000000010009c20       0x5e ..\..\platform\libs\libplatform.a(pmu.o)
                0x0000000010009c20                vddio_voltage_configure
 .text.lvd_level_set
                0x0000000010009c7e       0x10 ..\..\platform\libs\libplatform.a(pmu.o)
                0x0000000010009c7e                lvd_level_set
 .text.pmu_voltage_configure
                0x0000000010009c8e       0x60 ..\..\platform\libs\libplatform.a(pmu.o)
                0x0000000010009c8e                pmu_voltage_configure
 .text.pmu_init
                0x0000000010009cee       0x18 ..\..\platform\libs\libplatform.a(pmu.o)
                0x0000000010009cee                pmu_init
 .text.pmu_setclk_precfg
                0x0000000010009d06       0x20 ..\..\platform\libs\libplatform.a(pmu.o)
                0x0000000010009d06                pmu_setclk_precfg
 .text.saradc   0x0000000010009d26       0xa0 ..\..\platform\libs\libplatform.a(saradc.o)
                0x0000000010009d26                saradc_init
                0x0000000010009d80                saradc_exit
                0x0000000010009dc0                saradc_baud_set
 .text.circular_buf_read
                0x0000000010009dc6       0x76 ..\..\platform\libs\libplatform.a(buffer.o)
                0x0000000010009dc6                circular_buf_read
 .text.circular_buf_write
                0x0000000010009e3c       0x86 ..\..\platform\libs\libplatform.a(buffer.o)
                0x0000000010009e3c                circular_buf_write
 .text.circular_buf_len_get
                0x0000000010009ec2        0x4 ..\..\platform\libs\libplatform.a(buffer.o)
                0x0000000010009ec2                circular_buf_len_get
 .text.debug_set
                0x0000000010009ec6        0x8 ..\..\platform\libs\libplatform.a(debug.o)
                0x0000000010009ec6                debug_set
 .text.timer0_init
                0x0000000010009ece       0x4e ..\..\platform\libs\libplatform.a(interrupt.o)
                0x0000000010009ece                timer0_init
 .text.soft_irq_init
                0x0000000010009f1c       0x2c ..\..\platform\libs\libplatform.a(interrupt.o)
                0x0000000010009f1c                soft_irq_init
 .text.wdt_irq_init
                0x0000000010009f48       0x32 ..\..\platform\libs\libplatform.a(interrupt.o)
                0x0000000010009f48                wdt_irq_init
 .text.bsp.sys.init
                0x0000000010009f7a       0x3e ..\..\platform\libs\libplatform.a(interrupt.o)
                0x0000000010009f7a                lvd_irq_init
 .text.udivmoddi4
                0x0000000010009fb8       0x96 ..\..\platform\libs\libplatform.a(sys.o)
 .text.sys_rst_init
                0x000000001000a04e       0x1c ..\..\platform\libs\libplatform.a(sys.o)
                0x000000001000a04e                sys_rst_init
 .text.sys_rst_dump
                0x000000001000a06a       0x86 ..\..\platform\libs\libplatform.a(sys.o)
                0x000000001000a06a                sys_rst_dump
 .text.sys_get_rc2m_clkhz
                0x000000001000a0f0      0x114 ..\..\platform\libs\libplatform.a(sys.o)
                0x000000001000a0f0                sys_get_rc2m_clkhz
 .text.rc2m_clk_nhz_get
                0x000000001000a204       0x10 ..\..\platform\libs\libplatform.a(sys.o)
                0x000000001000a204                rc2m_clk_nhz_get
 .text.__udivdi3
                0x000000001000a214        0x6 ..\..\platform\libs\libplatform.a(sys.o)
                0x000000001000a214                __udivdi3
 .text.sys_get_rand_key
                0x000000001000a21a       0x76 ..\..\platform\libs\libplatform.a(sys.o)
                0x000000001000a21a                sys_get_rand_key
 .text.utf_cvert
                0x000000001000a290      0x156 ..\..\platform\libs\libplatform.a(sys.o)
                0x000000001000a290                convert_uni2gbk
                0x000000001000a31a                utf8_char_size
                0x000000001000a372                utf8_convert_to_unicode
                0x000000001000a3e4                sys_compiler
 .text.sys_clk  0x000000001000a3e6       0xd6 ..\..\platform\libs\libplatform.a(sys_clk.o)
                0x000000001000a3e6                get_sysclk_nhz
                0x000000001000a408                get_cur_sysclk
                0x000000001000a410                get_sd_rate
                0x000000001000a414                set_sd_baud
                0x000000001000a470                sysclk_update_baud
 *fill*         0x000000001000a4bc      0x144 
 .text.set_sys_clk_do
                0x000000001000a600      0x1ee ..\..\platform\libs\libplatform.a(sys_clk.o)
                0x000000001000a600                set_sys_clk_do
 .text.set_sys_clk
                0x000000001000a7ee       0xaa ..\..\platform\libs\libplatform.a(sys_clk.o)
                0x000000001000a7ee                set_sys_clk
 .text.voltage.trim
                0x000000001000a898       0x54 ..\..\platform\libs\libplatform.a(voltage_trim.o)
                0x000000001000a898                voltage_trim_value_init
 .text.stream   0x000000001000a8ec        0x8 ..\..\platform\libs\libplatform.a(weak_symbol.o)
                0x000000001000a8ec                stream_read
                0x000000001000a8f0                stream_seek
 .text          0x000000001000a8f4       0x9e ..\..\platform\libs\libcodecs.a(aviobuf.o)
                0x000000001000a8f4                avio_get_sample_index
                0x000000001000a952                avio_buf_init
                0x000000001000a986                avio_reset
 .text.avio     0x000000001000a992      0x254 ..\..\platform\libs\libcodecs.a(aviobuf.o)
                0x000000001000a9de                avio_seek
                0x000000001000aa7a                avio_skip
                0x000000001000aa7e                avio_tell
                0x000000001000aa84                avio_feof
                0x000000001000aaa0                avio_r8
                0x000000001000aac8                avio_read
                0x000000001000ab20                avio_rl16
                0x000000001000ab36                avio_rl24
                0x000000001000ab4c                avio_rl32
                0x000000001000ab62                avio_rl64
                0x000000001000ab78                avio_rb16
                0x000000001000ab8e                avio_rb24
                0x000000001000aba4                avio_rb32
                0x000000001000abba                avio_peek
 *fill*         0x000000001000abe6        0x2 
 .text.spr.table
                0x000000001000abe8        0xe ..\..\platform\libs\libcodecs.a(aviobuf.o)
                0x000000001000abe8                tbl_sample_rate
 .text          0x000000001000abf6       0x2c ..\..\platform\libs\libcodecs.a(codecs_com.o)
                0x000000001000abf6                music_get_mp3_frame_length
                0x000000001000ac12                get_mp3_bytes_by_second
 .text.deccom   0x000000001000ac22       0x44 ..\..\platform\libs\libcodecs.a(codecs_com.o)
                0x000000001000ac22                calc_codec_playtime
                0x000000001000ac40                update_codec_playtime_callback
                0x000000001000ac50                calc_frame_count
 .text.qskip    0x000000001000ac66       0xbe ..\..\platform\libs\libcodecs.a(codecs_com.o)
                0x000000001000ac66                codec_qskip_init
                0x000000001000ac9a                calc_qskip_target_offset
                0x000000001000acc8                music_qskip_end
                0x000000001000acf0                music_set_jump
                0x000000001000ad14                music_get_breakpiont
 .text          0x000000001000ad24      0x1fc ..\..\platform\libs\libcodecs.a(esbc.o)
                0x000000001000ad24                esbc_decode_8kbps
                0x000000001000ada2                esbc_encode_8kbps
                0x000000001000ada6                esbc_res_is_play
                0x000000001000adb0                esbc_res_start
                0x000000001000adb8                esbc_res_stop
                0x000000001000adbe                esbc_decode_frame
                0x000000001000ae6c                esbc_stream_init
                0x000000001000aeb6                esbc_init
 .text          0x000000001000af20       0x8c ..\..\platform\libs\libcodecs.a(dec_ld8a.o)
                0x000000001000af20                Init_Decod_ld8a
 .text          0x000000001000afac       0x10 ..\..\platform\libs\libcodecs.a(post_pro.o)
                0x000000001000afac                Init_Post_Process
 .text          0x000000001000afbc      0x1d8 ..\..\platform\libs\libcodecs.a(lsbc.o)
                0x000000001000afbc                lsbc_dumpinfo
                0x000000001000afbe                lsbc_dec_reinit
                0x000000001000afe8                lsbc_dec_init
                0x000000001000b16c                lsbc_get_packet_frame_size
                0x000000001000b174                lsbc_get_block_size
                0x000000001000b17c                lsbc_get_data_offset
                0x000000001000b184                lsbc_avio_reset
 *fill*         0x000000001000b194        0x0 
 .text.lsbc.proc
                0x000000001000b194      0x33a ..\..\platform\libs\libcodecs.a(lsbc.o)
                0x000000001000b202                lsbc_save_point
                0x000000001000b22c                lsbc_dec_frame
 .text          0x000000001000b4ce     0x119a ..\..\platform\libs\libcodecs.a(lsbcdeci.o)
                0x000000001000b4ce                ff_lsbc_init
                0x000000001000b898                lowrate_coefs_rq
                0x000000001000bf6e                lsbc_decode_frame
                0x000000001000c63a                lsbc_decode_finish
 .text.lsbc.deci
                0x000000001000c668     0x15bc ..\..\platform\libs\libcodecs.a(lsbcdeci.o)
                0x000000001000c668                wma_lsp_to_curve
                0x000000001000ce8a                calc_exponents
                0x000000001000cf06                lsbc_get_noise
                0x000000001000cf94                calc_mult
                0x000000001000d00e                midrate_coefs_rq
                0x000000001000d7b0                highrate_coefs_rq
                0x000000001000d9b8                lsbcv1_coefs_process
                0x000000001000da76                lsbc_decode_superframe_init
                0x000000001000db6e                lsbc_decode_last_superframe
                0x000000001000dbc0                lsbc_superframe_end
 .text.lsbc.imdct
                0x000000001000dc24       0x7a ..\..\platform\libs\libcodecs.a(mdct.o)
                0x000000001000dc24                ff_imdct_calc
 .text.lsbc.windows
                0x000000001000dc9e       0xee ..\..\platform\libs\libcodecs.a(windows.o)
                0x000000001000dc9e                lsbc_window
 .text.mp3dec.layer3.freqinver
                0x000000001000dd8c       0x26 ..\..\platform\libs\libcodecs.a(layer3.o)
 .text.mp3dec.layer3.overlap
                0x000000001000ddb2       0x88 ..\..\platform\libs\libcodecs.a(layer3.o)
                0x000000001000dde0                III_overlap_save
                0x000000001000de22                III_overlap_z
 .text.mp3dec.layer3.sideinfo
                0x000000001000de3a      0x21c ..\..\platform\libs\libcodecs.a(layer3.o)
                0x000000001000de3a                III_sideinfo
 .text.mp3dec.layer3.scale_lsf
                0x000000001000e056      0x26a ..\..\platform\libs\libcodecs.a(layer3.o)
                0x000000001000e056                III_scalefactors_lsf
 .text.mp3dec.layer3.scalefactors
                0x000000001000e2c0      0x20c ..\..\platform\libs\libcodecs.a(layer3.o)
                0x000000001000e2c0                III_scalefactors
 .text.mp3dec.layer3.exponents
                0x000000001000e4cc      0x14c ..\..\platform\libs\libcodecs.a(layer3.o)
                0x000000001000e4cc                III_exponents
 .text.mp3dec.layer3.requantize
                0x000000001000e618      0x19c ..\..\platform\libs\libcodecs.a(layer3.o)
                0x000000001000e618                III_requantize_xr
 .text.mp3dec.layer3.huffdec
                0x000000001000e7b4      0x56e ..\..\platform\libs\libcodecs.a(layer3.o)
                0x000000001000e7b4                III_huffdecode
 .text.mp3dec.layer3.recorder
                0x000000001000ed22       0xbe ..\..\platform\libs\libcodecs.a(layer3.o)
                0x000000001000ed22                III_reorder
 .text.mp3dec.layer3.windows
                0x000000001000ede0       0x98 ..\..\platform\libs\libcodecs.a(layer3.o)
                0x000000001000ede0                III_window_overlap
 .text.mp3dec.layer3.imdct
                0x000000001000ee78       0xce ..\..\platform\libs\libcodecs.a(layer3.o)
                0x000000001000ee78                III_imdct_s
 .text.mp3dec.layer3.decode
                0x000000001000ef46      0x44c ..\..\platform\libs\libcodecs.a(layer3.o)
                0x000000001000ef46                III_decode
 .text.mp3dec.layer3
                0x000000001000f392       0x4c ..\..\platform\libs\libcodecs.a(layer3.o)
                0x000000001000f392                mad_layer_III
 .text          0x000000001000f3de      0x228 ..\..\platform\libs\libcodecs.a(mp3_dec.o)
                0x000000001000f3de                mp3_id3v2_match
                0x000000001000f454                mp3_id3v2_tag_len
                0x000000001000f48c                mp3_id3v2_parse
                0x000000001000f4ca                mp3_get_total_time
                0x000000001000f4f8                set_vmp3_dec_en
                0x000000001000f508                mp3_read_init
                0x000000001000f5aa                mp3_dec_init
                0x000000001000f5be                spi_mp3_dec_init
 .text.mp3dec.dec
                0x000000001000f606       0x56 ..\..\platform\libs\libcodecs.a(mp3_dec.o)
                0x000000001000f606                mp3_end
                0x000000001000f610                mp3_dec_stop
                0x000000001000f61a                mp3_res_is_play
                0x000000001000f626                mp3_dec_frame
 .text.mp3dec.layer3.asm
                0x000000001000f65c       0x72 ..\..\platform\libs\libcodecs.a(s_layer3.o)
                0x000000001000f65c                III_aliasreduce
 .text          0x000000001000f6ce       0x2e ..\..\platform\libs\libcodecs.a(synth.o)
                0x000000001000f6ce                mad_synth_init
 .text.mp3dec.synth
                0x000000001000f6fc      0x264 ..\..\platform\libs\libcodecs.a(synth.o)
                0x000000001000f6fc                synth_full
 .text          0x000000001000f960      0x5ba ..\..\platform\libs\libcodecs.a(wavdec.o)
                0x000000001000f960                get_bits_le
                0x000000001000f9cc                wav_fix_spr_init
                0x000000001000f9de                wav_res_is_play
                0x000000001000f9e8                wav_avio_init
                0x000000001000fa7c                wav_res_speed
                0x000000001000fab6                wav_pitch_up_init
                0x000000001000fabe                wav_res_pitchup
                0x000000001000fb0e                bit8_to_16
                0x000000001000fb2e                wav_res_dec_process
                0x000000001000fc9c                wav_dec_stop
                0x000000001000fcc8                wav_res_decode
                0x000000001000fd10                wav_get_bytes_by_ms
                0x000000001000fd40                wav_get_cnt_by_ms_and_samples
                0x000000001000fd4a                wav_res_dump_header_info
                0x000000001000fd4c                wav_res_dec_init
 .text.spires   0x000000001000ff1a       0x9a ..\..\platform\libs\libcodecs.a(wavdec.o)
                0x000000001000ff1a                insert_buf_samples
 .text          0x000000001000ffb4       0x28 ..\..\platform\libs\libcodecs.a(codec.o)
                0x000000001000ffc6                mp3_get_cbr_total_time
                0x000000001000ffce                fs_save_file_info
                0x000000001000ffd0                fs_load_file_info
                0x000000001000ffd8                vsbc_dec_pcm_out_cb
                0x000000001000ffda                wav_dec_out_one_sample_cb
 .text          0x000000001000ffdc       0x3c ..\..\platform\libs\libcodecs.a(asf.o)
                0x000000001000ffdc                asf_read_packet_end
 .text.wma_dec  0x0000000010010018       0x2a ..\..\platform\libs\libcodecs.a(asf.o)
                0x0000000010010018                asf_read_packet
 .text.lsbc.asf
                0x0000000010010042       0x84 ..\..\platform\libs\libcodecs.a(asf.o)
                0x0000000010010042                asf_read_packet_data
                0x0000000010010098                asf_read_packet_byte
 .text          0x00000000100100c6       0x26 ..\..\platform\libs\libcodecs.a(bitstream.o)
                0x00000000100100c6                init_lsbc_get_bits
 .text.lsbc.bitstream
                0x00000000100100ec      0x128 ..\..\platform\libs\libcodecs.a(bitstream.o)
                0x00000000100100ec                fill_bitstream_buffer
                0x0000000010010118                lsbc_get_bits
                0x00000000100101d4                lsbc_skip_bits
 .text          0x0000000010010214        0x8 ..\..\platform\libs\libcodecs.a(lsbc_huffman.o)
                0x0000000010010214                set_cur_huffman_table
 .text.lsbc.huff.dec
                0x000000001001021c      0x17a ..\..\platform\libs\libcodecs.a(lsbc_huffman.o)
                0x000000001001021c                lsbc_huffman_dec
 .text.mp3dec.bits
                0x0000000010010396       0xa6 ..\..\platform\libs\libcodecs.a(bit.o)
                0x0000000010010396                mad_bit_init
                0x00000000100103c2                mp3_head_bit_init
                0x0000000010010408                mp3_stream_bit_init
 .text          0x000000001001043c      0x1ce ..\..\platform\libs\libcodecs.a(frame.o)
                0x000000001001043c                mad_frame_finish
                0x0000000010010442                mp3_decode_header
 .text.mp3dec.frame
                0x000000001001060a      0x2a0 ..\..\platform\libs\libcodecs.a(frame.o)
                0x000000001001060a                mp3_sync
                0x00000000100106ac                mp3_get_frame_len
                0x0000000010010704                avio_skip_peek
                0x00000000100107e2                mp3_maindata_start
                0x0000000010010810                mp3_check_maindata_len
                0x000000001001081e                mp3_frame_end
                0x000000001001085c                mp3_save_point
                0x000000001001087c                mp3_q_jump
 *fill*         0x00000000100108aa        0x2 
 .text.mp3dec.loop
                0x00000000100108ac      0x4dc ..\..\platform\libs\libcodecs.a(frame.o)
                0x00000000100108ac                mad_frame_decode
 .text          0x0000000010010d88        0x6 ..\..\platform\libs\libcodecs.a(voice_changer_fixed.o)
                0x0000000010010d88                picth_up_process
 .text.pitch    0x0000000010010d8e      0x3e8 ..\..\platform\libs\libcodecs.a(voice_changer_fixed.o)
                0x0000000010010d8e                pitch_change_init
                0x0000000010010f44                pitch_voice_process
 .text          0x0000000010011176      0x34c ..\..\platform\libs\libcodecs.a(adpcmdec.o)
                0x0000000010011176                get_bits_len
                0x0000000010011246                adpcm_res_dec_8_samples
                0x0000000010011306                adpcm_res_dec_process
 *(.wavdec*)
 *fill*         0x00000000100114c2        0x2 
 .wavdec.table  0x00000000100114c4       0xdc ..\..\platform\libs\libcodecs.a(wavdec.o)
                0x00000000100114c4                ff_adpcm_step_table
                0x0000000010011578                ff_adpcm_index_tables
                0x0000000010011584                ff_adpcm_index_table4
                0x0000000010011594                adpcm_index_table3
                0x000000001001159c                adpcm_index_table2
 *(.rodata*)
 .rodata.dac    0x00000000100115a0      0x158 Output\obj\platform\bsp\bsp_dac.o
                0x00000000100115a0                dig_vol_tbl
                0x000000001001161c                dac_dvol_tbl_16
                0x0000000010011640                dac_dvol_tbl_32
                0x0000000010011684                dac_dvol_tbl_50
                0x00000000100116ec                dig_vol_tbl_up
 .rodata.soft_fade_process.str1.4
                0x00000000100116f8       0x65 Output\obj\platform\bsp\bsp_dac.o
 *fill*         0x000000001001175d        0x3 
 .rodata.func.process.str1.4
                0x0000000010011760        0x2 Output\obj\projects\standard\functions\func.o
 *fill*         0x0000000010011762        0x2 
 .rodata.vol    0x0000000010011764        0x4 Output\obj\projects\standard\port\port_init.o
                0x0000000010011764                maxvol_tbl
 .rodata.key.table
                0x0000000010011768       0x16 Output\obj\projects\standard\port\port_key.o
                0x0000000010011768                key_config_table
 *fill*         0x000000001001177e        0x2 
 .rodata.cm_check_loadpage.str1.4
                0x0000000010011780       0x2a ..\..\platform\libs\libplatform.a(cm.o)
 *fill*         0x00000000100117aa        0x2 
 .rodata.cm_init.str1.4
                0x00000000100117ac       0x30 ..\..\platform\libs\libplatform.a(cm.o)
 .rodata.platform_main.str1.4
                0x00000000100117dc       0x1d ..\..\platform\libs\libplatform.a(main.o)
 *fill*         0x00000000100117f9        0x3 
 .rodata.sdadc  0x00000000100117fc      0x100 ..\..\platform\libs\libplatform.a(music.o)
                0x00000000100117fc                dac_digital_gain_tbl
 .rodata.encrypt_header_tbl
                0x00000000100118fc       0x20 ..\..\platform\libs\libplatform.a(music_res.o)
                0x00000000100118fc                encrypt_header_tbl
 .rodata.gpio   0x000000001001191c        0x8 ..\..\platform\libs\libplatform.a(gpio.o)
                0x000000001001191c                gpio_sfr
 .rodata.sys_rst_dump.str1.4
                0x0000000010011924       0x51 ..\..\platform\libs\libplatform.a(sys.o)
 *fill*         0x0000000010011975        0x3 
 .rodata.sys_get_rc2m_clkhz.str1.4
                0x0000000010011978       0x1d ..\..\platform\libs\libplatform.a(sys.o)
 *fill*         0x0000000010011995        0x3 
 .rodata.sysclk
                0x0000000010011998       0x2a ..\..\platform\libs\libplatform.a(sys_clk.o)
                0x0000000010011998                sysclk_info_tbl
 *fill*         0x00000000100119c2        0x2 
 .rodata        0x00000000100119c4       0x32 ..\..\platform\libs\libcodecs.a(lsbcdeci.o)
 *fill*         0x00000000100119f6        0x2 
 .rodata.lsbc.fixed
                0x00000000100119f8      0x6c4 ..\..\platform\libs\libcodecs.a(lsbcfixed.o)
                0x00000000100119f8                cos_pi_2n
                0x0000000010011a0c                sin_pi_2n
                0x0000000010011a20                cos_pi_4n
                0x0000000010011a34                sin_pi_4n
                0x0000000010011a48                sin_sb3
                0x0000000010011a5c                cos_sb3
                0x0000000010011a70                sin_sb1
                0x0000000010011a84                cos_sb1
                0x0000000010011a98                cos_pi_n
                0x0000000010011ac8                sin_pi_n
                0x0000000010011af8                pow_1n16_tbl
                0x0000000010011b38                pow_1n10_tbl
                0x0000000010011b58                pow_1d16_tbl
                0x0000000010011b98                pow_1d20_tbl
                0x0000000010011be8                pow_10n_tbl
                0x0000000010011c08                sqrt_n4_tbl
                0x0000000010011c1c                pow_4
                0x0000000010011e20                pow_ari
                0x0000000010011e3c                lsp_codebook
 .rodata.mp3dec.ca
                0x00000000100120bc       0x20 ..\..\platform\libs\libcodecs.a(layer3.o)
                0x00000000100120bc                ca
 .rodata.mp3dec.layer3.cs
                0x00000000100120dc       0x20 ..\..\platform\libs\libcodecs.a(layer3.o)
                0x00000000100120dc                cs
 .rodata.mp3dec.layer3.imdct
                0x00000000100120fc       0x90 ..\..\platform\libs\libcodecs.a(layer3.o)
                0x00000000100120fc                imdct_s
 .rodata.mp3dec.layer3.nsfb
                0x000000001001218c       0x48 ..\..\platform\libs\libcodecs.a(layer3.o)
                0x000000001001218c                nsfb_table
 .rodata.mp3dec.layer3.pretab
                0x00000000100121d4       0x16 ..\..\platform\libs\libcodecs.a(layer3.o)
                0x00000000100121d4                pretab
 *fill*         0x00000000100121ea        0x2 
 .rodata.mp3dec.layer3.requant
                0x00000000100121ec      0x508 ..\..\platform\libs\libcodecs.a(layer3.o)
                0x00000000100121ec                line_rq_delta
                0x0000000010012470                line_rq_table
 .rodata.mp3dec.layer3.root
                0x00000000100126f4       0x1c ..\..\platform\libs\libcodecs.a(layer3.o)
                0x00000000100126f4                root_table
 .rodata.mp3dec.layer3.sfb
                0x0000000010012710      0x31e ..\..\platform\libs\libcodecs.a(layer3.o)
                0x0000000010012710                sfbwidth_table
                0x000000001001277c                sfb_8000_mixed
                0x00000000100127a4                sfb_8000_short
                0x00000000100127cc                sfb_8000_long
                0x00000000100127e4                sfb_16000_mixed
                0x0000000010012808                sfb_22050_mixed
                0x000000001001282c                sfb_24000_mixed
                0x0000000010012850                sfb_16000_short
                0x0000000010012878                sfb_22050_short
                0x00000000100128a0                sfb_24000_short
                0x00000000100128c8                sfb_22050_long
                0x00000000100128e0                sfb_24000_long
                0x00000000100128f8                sfb_32000_mixed
                0x0000000010012920                sfb_44100_mixed
                0x0000000010012948                sfb_48000_mixed
                0x0000000010012970                sfb_32000_short
                0x0000000010012998                sfb_44100_short
                0x00000000100129c0                sfb_48000_short
                0x00000000100129e8                sfb_32000_long
                0x0000000010012a18                sfb_48000_long
 *fill*         0x0000000010012a2e        0x2 
 .rodata.mp3dec.layer3.sflen
                0x0000000010012a30       0x20 ..\..\platform\libs\libcodecs.a(layer3.o)
                0x0000000010012a30                sflen_table
 .rodata.str1.4
                0x0000000010012a50       0x29 ..\..\platform\libs\libcodecs.a(asf.o)
 *fill*         0x0000000010012a79        0x3 
 .rodata.lsbc.huff.mask
                0x0000000010012a7c      0x144 ..\..\platform\libs\libcodecs.a(lsbc_huffman.o)
                0x0000000010012a7c                huffman_mask_info
 .rodata.lsbc.huff.noise
                0x0000000010012bc0       0x6c ..\..\platform\libs\libcodecs.a(lsbc_huffman.o)
                0x0000000010012bc0                huffman_noise_power
 .rodata.lsbc.huff.rlc16
                0x0000000010012c2c      0xaec ..\..\platform\libs\libcodecs.a(lsbc_huffman.o)
                0x0000000010012c2c                huffman_rlc16_diff
                0x0000000010013164                huffman_rlc16_mono
 .rodata.str1.4
                0x0000000010013718       0x2c ..\..\platform\libs\libcodecs.a(frame.o)
 .rodata        0x0000000010013744      0x264 ..\..\platform\libs\libcodecs.a(frame.o)
                0x0000000010013744                vmp3_bitrate_table
                0x0000000010013870                bitrate_table
                0x000000001001399c                samplerate_table
 .rodata.mp3dec.huffman
                0x00000000100139a8     0x1228 ..\..\platform\libs\libcodecs.a(huffman.o)
                0x00000000100139a8                mad_huff_pair_table
                0x0000000010013aa8                mad_huff_quad_table
                0x0000000010013ab0                hufftab24
                0x0000000010013db4                hufftab16
                0x00000000100140d8                hufftab15
                0x00000000100143d0                hufftab13
                0x00000000100146ec                hufftab12
                0x00000000100147ac                hufftab11
                0x000000001001487c                hufftab10
                0x0000000010014948                hufftab9
                0x00000000100149b4                hufftab8
                0x0000000010014a38                hufftab7
                0x0000000010014ab8                hufftab6
                0x0000000010014af0                hufftab5
                0x0000000010014b24                hufftab3
                0x0000000010014b44                hufftab2
                0x0000000010014b64                hufftab1
                0x0000000010014b74                hufftab0
                0x0000000010014b78                hufftabB
                0x0000000010014b98                hufftabA
 *(.rela*)
 .rela.text.cm_factory
                0x0000000010014bd0        0x0 Output\obj\platform\bsp\bsp_cm.o
 .rela.text.bsp.dac
                0x0000000010014bd0        0x0 Output\obj\platform\bsp\bsp_cm.o
 .rela.text.dac
                0x0000000010014bd0        0x0 Output\obj\platform\bsp\bsp_cm.o
 .rela.text.dac.vtbl
                0x0000000010014bd0        0x0 Output\obj\platform\bsp\bsp_cm.o
 .rela.text.set_soft_fade_in
                0x0000000010014bd0        0x0 Output\obj\platform\bsp\bsp_cm.o
 .rela.text.set_soft_fade_out
                0x0000000010014bd0        0x0 Output\obj\platform\bsp\bsp_cm.o
 .rela.text.soft_fade_out_wait
                0x0000000010014bd0        0x0 Output\obj\platform\bsp\bsp_cm.o
 .rela.text.soft_fade_process
                0x0000000010014bd0        0x0 Output\obj\platform\bsp\bsp_cm.o
 .rela.com_text.dumpbuf_test
                0x0000000010014bd0        0x0 Output\obj\platform\bsp\bsp_cm.o
 .rela.text.dumpbuf
                0x0000000010014bd0        0x0 Output\obj\platform\bsp\bsp_cm.o
 .rela.com_text.dumpbuf
                0x0000000010014bd0        0x0 Output\obj\platform\bsp\bsp_cm.o
 .rela.text.huart_module_init
                0x0000000010014bd0        0x0 Output\obj\platform\bsp\bsp_cm.o
 .rela.text.dumphuart_io_test
                0x0000000010014bd0        0x0 Output\obj\platform\bsp\bsp_cm.o
 .rela.text.dump_buf_test
                0x0000000010014bd0        0x0 Output\obj\platform\bsp\bsp_cm.o
 .rela.text.huart_dump_init
                0x0000000010014bd0        0x0 Output\obj\platform\bsp\bsp_cm.o
 .rela.text.music_res_init
                0x0000000010014bd0        0x0 Output\obj\platform\bsp\bsp_cm.o
 .rela.text.music_mode_enter
                0x0000000010014bd0        0x0 Output\obj\platform\bsp\bsp_cm.o
 .rela.text.music_mode_exit
                0x0000000010014bd0        0x0 Output\obj\platform\bsp\bsp_cm.o
 .rela.text.music_decode
                0x0000000010014bd0        0x0 Output\obj\platform\bsp\bsp_cm.o
 .rela.text.mp3_res_play_do
                0x0000000010014bd0        0x0 Output\obj\platform\bsp\bsp_cm.o
 .rela.text.mp3_res_play
                0x0000000010014bd0        0x0 Output\obj\platform\bsp\bsp_cm.o
 .rela.text.vmp3_res_play_do
                0x0000000010014bd0        0x0 Output\obj\platform\bsp\bsp_cm.o
 .rela.text.vmp3_res_play
                0x0000000010014bd0        0x0 Output\obj\platform\bsp\bsp_cm.o
 .rela.text.esbc_res_play_do
                0x0000000010014bd0        0x0 Output\obj\platform\bsp\bsp_cm.o
 .rela.text.esbc_res_play
                0x0000000010014bd0        0x0 Output\obj\platform\bsp\bsp_cm.o
 .rela.text.wav_res_play_do
                0x0000000010014bd0        0x0 Output\obj\platform\bsp\bsp_cm.o
 .rela.text.wav_res_play
                0x0000000010014bd0        0x0 Output\obj\platform\bsp\bsp_cm.o
 .rela.text.lsbc_res_play_do
                0x0000000010014bd0        0x0 Output\obj\platform\bsp\bsp_cm.o
 .rela.text.lsbc_res_play
                0x0000000010014bd0        0x0 Output\obj\platform\bsp\bsp_cm.o
 .rela.text.mp3_song_play
                0x0000000010014bd0        0x0 Output\obj\platform\bsp\bsp_cm.o
 .rela.text.vmp3_song_play
                0x0000000010014bd0        0x0 Output\obj\platform\bsp\bsp_cm.o
 .rela.text.mp3_song_play_end
                0x0000000010014bd0        0x0 Output\obj\platform\bsp\bsp_cm.o
 .rela.text.esbc_song_play
                0x0000000010014bd0        0x0 Output\obj\platform\bsp\bsp_cm.o
 .rela.text.esbc_song_play_end
                0x0000000010014bd0        0x0 Output\obj\platform\bsp\bsp_cm.o
 .rela.text.lsbc_song_play
                0x0000000010014bd0        0x0 Output\obj\platform\bsp\bsp_cm.o
 .rela.text.wav_song_play
                0x0000000010014bd0        0x0 Output\obj\platform\bsp\bsp_cm.o
 .rela.text.wav_song_play_end
                0x0000000010014bd0        0x0 Output\obj\platform\bsp\bsp_cm.o
 .rela.text.wav_dec_proc
                0x0000000010014bd0        0x0 Output\obj\platform\bsp\bsp_cm.o
 .rela.text.lsbc_song_dec_proc
                0x0000000010014bd0        0x0 Output\obj\platform\bsp\bsp_cm.o
 .rela.text.mp3_song_dec_proc
                0x0000000010014bd0        0x0 Output\obj\platform\bsp\bsp_cm.o
 .rela.text.esbc_song_dec_proc
                0x0000000010014bd0        0x0 Output\obj\platform\bsp\bsp_cm.o
 .rela.text.music_decode_process
                0x0000000010014bd0        0x0 Output\obj\platform\bsp\bsp_cm.o
 .rela.text.bsp.param
                0x0000000010014bd0        0x0 Output\obj\platform\bsp\bsp_cm.o
 .rela.text.e_get_adc_val_test
                0x0000000010014bd0        0x0 Output\obj\platform\bsp\bsp_cm.o
 .rela.text.e_get_saradc_data
                0x0000000010014bd0        0x0 Output\obj\platform\bsp\bsp_cm.o
 .rela.text.e_saradc_proc
                0x0000000010014bd0        0x0 Output\obj\platform\bsp\bsp_cm.o
 .rela.text.bsp.sys
                0x0000000010014bd0        0x0 Output\obj\platform\bsp\bsp_cm.o
 .rela.text.bsp.sys.init
                0x0000000010014bd0        0x0 Output\obj\platform\bsp\bsp_cm.o
 .rela.com_text.port.key
                0x0000000010014bd0        0x0 Output\obj\platform\bsp\bsp_cm.o
 .rela.text.vddio_follow_vbat_process
                0x0000000010014bd0        0x0 Output\obj\platform\bsp\bsp_cm.o
 .rela.com_text.port.vbat
                0x0000000010014bd0        0x0 Output\obj\platform\bsp\bsp_cm.o
 .rela.text.init
                0x0000000010014bd0        0x0 Output\obj\platform\bsp\bsp_cm.o
 .rela.text.is_lowpower_vbat_warning
                0x0000000010014bd0        0x0 Output\obj\platform\bsp\bsp_cm.o
 .rela.text.lowpower_vbat_process
                0x0000000010014bd0        0x0 Output\obj\platform\bsp\bsp_cm.o
 .rela.text.bsp.key.init
                0x0000000010014bd0        0x0 Output\obj\platform\bsp\bsp_cm.o
 .rela.text.bsp.key
                0x0000000010014bd0        0x0 Output\obj\platform\bsp\bsp_cm.o
 .rela.com_text.bsp.key
                0x0000000010014bd0        0x0 Output\obj\platform\bsp\bsp_cm.o
 .rela.text.spiflash_write_en
                0x0000000010014bd0        0x0 Output\obj\platform\bsp\bsp_cm.o
 .rela.text.spiflash_readssr
                0x0000000010014bd0        0x0 Output\obj\platform\bsp\bsp_cm.o
 .rela.text.spiflash0_sendaddr
                0x0000000010014bd0        0x0 Output\obj\platform\bsp\bsp_cm.o
 .rela.text.spiflash0_id_read
                0x0000000010014bd0        0x0 Output\obj\platform\bsp\bsp_cm.o
 .rela.text.spiflash_security_erase
                0x0000000010014bd0        0x0 Output\obj\platform\bsp\bsp_cm.o
 .rela.text.spiflash_security_read
                0x0000000010014bd0        0x0 Output\obj\platform\bsp\bsp_cm.o
 .rela.text.spiflash_security_write
                0x0000000010014bd0        0x0 Output\obj\platform\bsp\bsp_cm.o
 .rela.text.spiflash0_read_test
                0x0000000010014bd0        0x0 Output\obj\platform\bsp\bsp_cm.o
 .rela.text.spiflash_readuid
                0x0000000010014bd0        0x0 Output\obj\platform\bsp\bsp_cm.o
 .rela.text.flash_uid_read_proc
                0x0000000010014bd0        0x0 Output\obj\platform\bsp\bsp_cm.o
 .rela.com_text.vddio
                0x0000000010014bd0        0x0 Output\obj\platform\bsp\bsp_cm.o
 .rela.text.get_vddio_voltage
                0x0000000010014bd0        0x0 Output\obj\platform\bsp\bsp_cm.o
 .rela.text.func.process
                0x0000000010014bd0        0x0 Output\obj\platform\bsp\bsp_cm.o
 .rela.text.func.msg
                0x0000000010014bd0        0x0 Output\obj\platform\bsp\bsp_cm.o
 .rela.text.func
                0x0000000010014bd0        0x0 Output\obj\platform\bsp\bsp_cm.o
 .rela.text.clear_realtime_scores
                0x0000000010014bd0        0x0 Output\obj\platform\bsp\bsp_cm.o
 .rela.text.clear_max_scores
                0x0000000010014bd0        0x0 Output\obj\platform\bsp\bsp_cm.o
 .rela.text.seg_display_max_score
                0x0000000010014bd0        0x0 Output\obj\platform\bsp\bsp_cm.o
 .rela.text.device_init
                0x0000000010014bd0        0x0 Output\obj\platform\bsp\bsp_cm.o
 .rela.text.auto_shutdown_process
                0x0000000010014bd0        0x0 Output\obj\platform\bsp\bsp_cm.o
 .rela.text.power_process
                0x0000000010014bd0        0x0 Output\obj\platform\bsp\bsp_cm.o
 .rela.text.clear_score_process
                0x0000000010014bd0        0x0 Output\obj\platform\bsp\bsp_cm.o
 .rela.text.cycle_play
                0x0000000010014bd0        0x0 Output\obj\platform\bsp\bsp_cm.o
 .rela.text.loop_bgm_process
                0x0000000010014bd0        0x0 Output\obj\platform\bsp\bsp_cm.o
 .rela.text.show_high_score_process
                0x0000000010014bd0        0x0 Output\obj\platform\bsp\bsp_cm.o
 .rela.text.clear_high_score_process
                0x0000000010014bd0        0x0 Output\obj\platform\bsp\bsp_cm.o
 .rela.text.leaf_play
                0x0000000010014bd0        0x0 Output\obj\platform\bsp\bsp_cm.o
 .rela.text.leaf_process
                0x0000000010014bd0        0x0 Output\obj\platform\bsp\bsp_cm.o
 .rela.text.user_main
                0x0000000010014bd0        0x0 Output\obj\platform\bsp\bsp_cm.o
 .rela.text.func.idle
                0x0000000010014bd0        0x0 Output\obj\platform\bsp\bsp_cm.o
 .rela.pdncom_text.lp.sleep
                0x0000000010014bd0        0x0 Output\obj\platform\bsp\bsp_cm.o
 .rela.text.lowpwr.sleep
                0x0000000010014bd0        0x0 Output\obj\platform\bsp\bsp_cm.o
 .rela.text.pdn4_back_init
                0x0000000010014bd0        0x0 Output\obj\platform\bsp\bsp_cm.o
 .rela.pdncom_text.pwroff
                0x0000000010014bd0        0x0 Output\obj\platform\bsp\bsp_cm.o
 .rela.text.lowpwr.pdn
                0x0000000010014bd0        0x0 Output\obj\platform\bsp\bsp_cm.o
 .rela.text.lowpwr.pwroff
                0x0000000010014bd0        0x0 Output\obj\platform\bsp\bsp_cm.o
 .rela.text.lowpwr.lowbat
                0x0000000010014bd0        0x0 Output\obj\platform\bsp\bsp_cm.o
 .rela.text.lowpwr.dac_off
                0x0000000010014bd0        0x0 Output\obj\platform\bsp\bsp_cm.o
 .rela.text.startup.main
                0x0000000010014bd0        0x0 Output\obj\platform\bsp\bsp_cm.o
 .rela.text.update_complete
                0x0000000010014bd0        0x0 Output\obj\platform\bsp\bsp_cm.o
 .rela.text.plugin_init
                0x0000000010014bd0        0x0 Output\obj\platform\bsp\bsp_cm.o
 .rela.com_text.key
                0x0000000010014bd0        0x0 Output\obj\platform\bsp\bsp_cm.o
 .rela.com_text.seg
                0x0000000010014bd0        0x0 Output\obj\platform\bsp\bsp_cm.o
 .rela.com_text.timer
                0x0000000010014bd0        0x0 Output\obj\platform\bsp\bsp_cm.o
 .rela.text.key.init
                0x0000000010014bd0        0x0 Output\obj\platform\bsp\bsp_cm.o
 .rela.reset    0x0000000010014bd0        0x0 Output\obj\platform\bsp\bsp_cm.o
 .rela.vector   0x0000000010014bd0        0x0 Output\obj\platform\bsp\bsp_cm.o
 .rela.text.pll0_vco_band_trimming
                0x0000000010014bd0        0x0 Output\obj\platform\bsp\bsp_cm.o
 .rela.text.adpll_init
                0x0000000010014bd0        0x0 Output\obj\platform\bsp\bsp_cm.o
 .rela.com_text.aux.dnr
                0x0000000010014bd0        0x0 Output\obj\platform\bsp\bsp_cm.o
 .rela.com_text.dac.dnr
                0x0000000010014bd0        0x0 Output\obj\platform\bsp\bsp_cm.o
 .rela.text.dac.dnr
                0x0000000010014bd0        0x0 Output\obj\platform\bsp\bsp_cm.o
 .rela.text.dac_dc_exp_on
                0x0000000010014bd0        0x0 Output\obj\platform\bsp\bsp_cm.o
 .rela.text.dac_dc_exp_off
                0x0000000010014bd0        0x0 Output\obj\platform\bsp\bsp_cm.o
 .rela.com_text.dac
                0x0000000010014bd0        0x0 Output\obj\platform\bsp\bsp_cm.o
 .rela.text.dac_gpdma_irq_init
                0x0000000010014bd0        0x0 Output\obj\platform\bsp\bsp_cm.o
 .rela.text.cm_loadpage
                0x0000000010014bd0        0x0 Output\obj\platform\bsp\bsp_cm.o
 .rela.text.cm_movepage
                0x0000000010014bd0        0x0 Output\obj\platform\bsp\bsp_cm.o
 .rela.text.cm_release
                0x0000000010014bd0        0x0 Output\obj\platform\bsp\bsp_cm.o
 .rela.text.cm_write_cfgpage
                0x0000000010014bd0        0x0 Output\obj\platform\bsp\bsp_cm.o
 .rela.text.cm_check_loadpage
                0x0000000010014bd0        0x0 Output\obj\platform\bsp\bsp_cm.o
 .rela.text.cm_check_page
                0x0000000010014bd0        0x0 Output\obj\platform\bsp\bsp_cm.o
 .rela.text.cm_release_all
                0x0000000010014bd0        0x0 Output\obj\platform\bsp\bsp_cm.o
 .rela.text.cm_read
                0x0000000010014bd0        0x0 Output\obj\platform\bsp\bsp_cm.o
 .rela.text.cm_read8
                0x0000000010014bd0        0x0 Output\obj\platform\bsp\bsp_cm.o
 .rela.text.cm_read16
                0x0000000010014bd0        0x0 Output\obj\platform\bsp\bsp_cm.o
 .rela.text.cm_read32
                0x0000000010014bd0        0x0 Output\obj\platform\bsp\bsp_cm.o
 .rela.text.cm_write
                0x0000000010014bd0        0x0 Output\obj\platform\bsp\bsp_cm.o
 .rela.text.cm_write8
                0x0000000010014bd0        0x0 Output\obj\platform\bsp\bsp_cm.o
 .rela.text.cm_write16
                0x0000000010014bd0        0x0 Output\obj\platform\bsp\bsp_cm.o
 .rela.text.cm_write32
                0x0000000010014bd0        0x0 Output\obj\platform\bsp\bsp_cm.o
 .rela.text.cm_clear
                0x0000000010014bd0        0x0 Output\obj\platform\bsp\bsp_cm.o
 .rela.text.cm_init
                0x0000000010014bd0        0x0 Output\obj\platform\bsp\bsp_cm.o
 .rela.com_text.spiflash
                0x0000000010014bd0        0x0 Output\obj\platform\bsp\bsp_cm.o
 .rela.com_text.spiflash1
                0x0000000010014bd0        0x0 Output\obj\platform\bsp\bsp_cm.o
 .rela.text.xcfg_init
                0x0000000010014bd0        0x0 Output\obj\platform\bsp\bsp_cm.o
 .rela.text.dcache_init
                0x0000000010014bd0        0x0 Output\obj\platform\bsp\bsp_cm.o
 .rela.text.dcache_init_4addr
                0x0000000010014bd0        0x0 Output\obj\platform\bsp\bsp_cm.o
 .rela.com_text.delay
                0x0000000010014bd0        0x0 Output\obj\platform\bsp\bsp_cm.o
 .rela.text.platform_main
                0x0000000010014bd0        0x0 Output\obj\platform\bsp\bsp_cm.o
 .rela.text.main_startup
                0x0000000010014bd0        0x0 Output\obj\platform\bsp\bsp_cm.o
 .rela.text.compiler
                0x0000000010014bd0        0x0 Output\obj\platform\bsp\bsp_cm.o
 .rela.text.wav_dec_pcm_out_cb
                0x0000000010014bd0        0x0 Output\obj\platform\bsp\bsp_cm.o
 .rela.text.esbc_dec_pcm_out_cb
                0x0000000010014bd0        0x0 Output\obj\platform\bsp\bsp_cm.o
 .rela.text.midi_dec_pcm_out_cb
                0x0000000010014bd0        0x0 Output\obj\platform\bsp\bsp_cm.o
 .rela.text.mp3_dec_pcm_out_cb
                0x0000000010014bd0        0x0 Output\obj\platform\bsp\bsp_cm.o
 .rela.lsbc_text.dec
                0x0000000010014bd0        0x0 Output\obj\platform\bsp\bsp_cm.o
 .rela.text.lsbc_dec_pcm_out_cb_do
                0x0000000010014bd0        0x0 Output\obj\platform\bsp\bsp_cm.o
 .rela.text.lsbc_skip_pcm_frame
                0x0000000010014bd0        0x0 Output\obj\platform\bsp\bsp_cm.o
 .rela.text.lsbc_dec_pause_do
                0x0000000010014bd0        0x0 Output\obj\platform\bsp\bsp_cm.o
 .rela.text.wav_dec_pause_do
                0x0000000010014bd0        0x0 Output\obj\platform\bsp\bsp_cm.o
 .rela.text.mp3_dec_pause_do
                0x0000000010014bd0        0x0 Output\obj\platform\bsp\bsp_cm.o
 .rela.text.esbc_dec_pause_do
                0x0000000010014bd0        0x0 Output\obj\platform\bsp\bsp_cm.o
 .rela.text.midi_dec_pause_do
                0x0000000010014bd0        0x0 Output\obj\platform\bsp\bsp_cm.o
 .rela.text.music_get_total_time
                0x0000000010014bd0        0x0 Output\obj\platform\bsp\bsp_cm.o
 .rela.text.wav_decode_init
                0x0000000010014bd0        0x0 Output\obj\platform\bsp\bsp_cm.o
 .rela.text.wav_2_decode_init
                0x0000000010014bd0        0x0 Output\obj\platform\bsp\bsp_cm.o
 .rela.text.mp3_decode_init
                0x0000000010014bd0        0x0 Output\obj\platform\bsp\bsp_cm.o
 .rela.text.spi_mp3_decode_init
                0x0000000010014bd0        0x0 Output\obj\platform\bsp\bsp_cm.o
 .rela.text.spi_wav_decode_init
                0x0000000010014bd0        0x0 Output\obj\platform\bsp\bsp_cm.o
 .rela.text.spi_esbc_decode_init
                0x0000000010014bd0        0x0 Output\obj\platform\bsp\bsp_cm.o
 .rela.text.lsbc_decode_init
                0x0000000010014bd0        0x0 Output\obj\platform\bsp\bsp_cm.o
 .rela.text.spi_lsbc_decode_init
                0x0000000010014bd0        0x0 Output\obj\platform\bsp\bsp_cm.o
 .rela.text.spi_midi_decode_init
                0x0000000010014bd0        0x0 Output\obj\platform\bsp\bsp_cm.o
 .rela.text.music_decode_init
                0x0000000010014bd0        0x0 Output\obj\platform\bsp\bsp_cm.o
 .rela.text.msc_drc_process
                0x0000000010014bd0        0x0 Output\obj\platform\bsp\bsp_cm.o
 .rela.music_text
                0x0000000010014bd0        0x0 Output\obj\platform\bsp\bsp_cm.o
 .rela.text.pcm_out_cb_merge_do
                0x0000000010014bd0        0x0 Output\obj\platform\bsp\bsp_cm.o
 .rela.text.set_layer0_fade
                0x0000000010014bd0        0x0 Output\obj\platform\bsp\bsp_cm.o
 .rela.text.set_layer1_fade
                0x0000000010014bd0        0x0 Output\obj\platform\bsp\bsp_cm.o
 .rela.text.pcm_soft_fade_in
                0x0000000010014bd0        0x0 Output\obj\platform\bsp\bsp_cm.o
 .rela.text.pcm_soft_fade_out
                0x0000000010014bd0        0x0 Output\obj\platform\bsp\bsp_cm.o
 .rela.text.music_lay0_pcm_out_fade
                0x0000000010014bd0        0x0 Output\obj\platform\bsp\bsp_cm.o
 .rela.text.layer0_mp3_proc
                0x0000000010014bd0        0x0 Output\obj\platform\bsp\bsp_cm.o
 .rela.text.pcm_out_cb_merge_mp3
                0x0000000010014bd0        0x0 Output\obj\platform\bsp\bsp_cm.o
 .rela.text.pcm_out_cb_merge_midi
                0x0000000010014bd0        0x0 Output\obj\platform\bsp\bsp_cm.o
 .rela.text.pcm_out_cb_merge_lsbc
                0x0000000010014bd0        0x0 Output\obj\platform\bsp\bsp_cm.o
 .rela.text.music_lay1_pcm_out_fade
                0x0000000010014bd0        0x0 Output\obj\platform\bsp\bsp_cm.o
 .rela.text.pcm_out_cb_merge_wav
                0x0000000010014bd0        0x0 Output\obj\platform\bsp\bsp_cm.o
 .rela.text.spires_get_pos
                0x0000000010014bd0        0x0 Output\obj\platform\bsp\bsp_cm.o
 .rela.text.spires_get_len
                0x0000000010014bd0        0x0 Output\obj\platform\bsp\bsp_cm.o
 .rela.text.spires_load_pos
                0x0000000010014bd0        0x0 Output\obj\platform\bsp\bsp_cm.o
 .rela.text.spi_res_decrypt
                0x0000000010014bd0        0x0 Output\obj\platform\bsp\bsp_cm.o
 .rela.text.spiflash_mp3_loop_skip_start_size
                0x0000000010014bd0        0x0 Output\obj\platform\bsp\bsp_cm.o
 .rela.text.spiflash_mp3_loop_skip_end_size
                0x0000000010014bd0        0x0 Output\obj\platform\bsp\bsp_cm.o
 .rela.text.spiflash_mp3_skip_start_size
                0x0000000010014bd0        0x0 Output\obj\platform\bsp\bsp_cm.o
 .rela.text.spiflash_mp3_skip_end_size
                0x0000000010014bd0        0x0 Output\obj\platform\bsp\bsp_cm.o
 .rela.text.flash_or_ex_read
                0x0000000010014bd0        0x0 Output\obj\platform\bsp\bsp_cm.o
 .rela.text.spi_stream_read
                0x0000000010014bd0        0x0 Output\obj\platform\bsp\bsp_cm.o
 .rela.text.esbc_spi_stream_read
                0x0000000010014bd0        0x0 Output\obj\platform\bsp\bsp_cm.o
 .rela.text.lsbc_spi_stream_read
                0x0000000010014bd0        0x0 Output\obj\platform\bsp\bsp_cm.o
 .rela.text.get_msc_loop_cnt
                0x0000000010014bd0        0x0 Output\obj\platform\bsp\bsp_cm.o
 .rela.text.spi_stream_seek
                0x0000000010014bd0        0x0 Output\obj\platform\bsp\bsp_cm.o
 .rela.text.spi_save_file_info
                0x0000000010014bd0        0x0 Output\obj\platform\bsp\bsp_cm.o
 .rela.text.spi_load_file_info
                0x0000000010014bd0        0x0 Output\obj\platform\bsp\bsp_cm.o
 .rela.text.res_play_loop_back_skip_size
                0x0000000010014bd0        0x0 Output\obj\platform\bsp\bsp_cm.o
 .rela.text.res_play_loop_back
                0x0000000010014bd0        0x0 Output\obj\platform\bsp\bsp_cm.o
 .rela.text.wav_wait_fade_out
                0x0000000010014bd0        0x0 Output\obj\platform\bsp\bsp_cm.o
 .rela.text.mp3_wait_fade_out
                0x0000000010014bd0        0x0 Output\obj\platform\bsp\bsp_cm.o
 .rela.text.mp3_res_play_init
                0x0000000010014bd0        0x0 Output\obj\platform\bsp\bsp_cm.o
 .rela.text.mp3_res_play_kick
                0x0000000010014bd0        0x0 Output\obj\platform\bsp\bsp_cm.o
 .rela.text.mp3_res_loop_play_kick
                0x0000000010014bd0        0x0 Output\obj\platform\bsp\bsp_cm.o
 .rela.text.mp3_res_play_exit
                0x0000000010014bd0        0x0 Output\obj\platform\bsp\bsp_cm.o
 .rela.text.vmp3_res_play_kick
                0x0000000010014bd0        0x0 Output\obj\platform\bsp\bsp_cm.o
 .rela.text.vmp3_res_loop_play_kick
                0x0000000010014bd0        0x0 Output\obj\platform\bsp\bsp_cm.o
 .rela.text.mp3_link_play_init_do
                0x0000000010014bd0        0x0 Output\obj\platform\bsp\bsp_cm.o
 .rela.text.vmp3_link_play_init_do
                0x0000000010014bd0        0x0 Output\obj\platform\bsp\bsp_cm.o
 .rela.text.mp3_link_play_kick
                0x0000000010014bd0        0x0 Output\obj\platform\bsp\bsp_cm.o
 .rela.text.wav_spi_stream_read
                0x0000000010014bd0        0x0 Output\obj\platform\bsp\bsp_cm.o
 .rela.text.wav1_get_loop_cnt
                0x0000000010014bd0        0x0 Output\obj\platform\bsp\bsp_cm.o
 .rela.text.wav1_spi_stream_read
                0x0000000010014bd0        0x0 Output\obj\platform\bsp\bsp_cm.o
 .rela.text.wav1_spi_stream_seek
                0x0000000010014bd0        0x0 Output\obj\platform\bsp\bsp_cm.o
 .rela.text.get_wav1_res_ptr
                0x0000000010014bd0        0x0 Output\obj\platform\bsp\bsp_cm.o
 .rela.text.wav2_spi_stream_read
                0x0000000010014bd0        0x0 Output\obj\platform\bsp\bsp_cm.o
 .rela.text.wav2_spi_stream_seek
                0x0000000010014bd0        0x0 Output\obj\platform\bsp\bsp_cm.o
 .rela.text.get_wav2_res_ptr
                0x0000000010014bd0        0x0 Output\obj\platform\bsp\bsp_cm.o
 .rela.text.wav3_spi_stream_read
                0x0000000010014bd0        0x0 Output\obj\platform\bsp\bsp_cm.o
 .rela.text.wav3_spi_stream_seek
                0x0000000010014bd0        0x0 Output\obj\platform\bsp\bsp_cm.o
 .rela.text.get_wav3_res_ptr
                0x0000000010014bd0        0x0 Output\obj\platform\bsp\bsp_cm.o
 .rela.text.wav_res_play_loop_back
                0x0000000010014bd0        0x0 Output\obj\platform\bsp\bsp_cm.o
 .rela.text.wav_res_play_init
                0x0000000010014bd0        0x0 Output\obj\platform\bsp\bsp_cm.o
 .rela.text.wav_res_play_kick
                0x0000000010014bd0        0x0 Output\obj\platform\bsp\bsp_cm.o
 .rela.text.esbc_res_play_kick
                0x0000000010014bd0        0x0 Output\obj\platform\bsp\bsp_cm.o
 .rela.text.esbc_res_play_exit
                0x0000000010014bd0        0x0 Output\obj\platform\bsp\bsp_cm.o
 .rela.text.esbc_link_play_init
                0x0000000010014bd0        0x0 Output\obj\platform\bsp\bsp_cm.o
 .rela.text.esbc_link_play_kick
                0x0000000010014bd0        0x0 Output\obj\platform\bsp\bsp_cm.o
 .rela.text.get_lsbc_total_frame
                0x0000000010014bd0        0x0 Output\obj\platform\bsp\bsp_cm.o
 .rela.text.break_point_calculate
                0x0000000010014bd0        0x0 Output\obj\platform\bsp\bsp_cm.o
 .rela.text.lsbc_res_play_kick
                0x0000000010014bd0        0x0 Output\obj\platform\bsp\bsp_cm.o
 .rela.text.lsbc_res_loop_play_kick
                0x0000000010014bd0        0x0 Output\obj\platform\bsp\bsp_cm.o
 .rela.text.midi_play_kick_do
                0x0000000010014bd0        0x0 Output\obj\platform\bsp\bsp_cm.o
 .rela.text.adcch_io_pu10k_enable
                0x0000000010014bd0        0x0 Output\obj\platform\bsp\bsp_cm.o
 .rela.com_text.bsp.multikey
                0x0000000010014bd0        0x0 Output\obj\platform\bsp\bsp_cm.o
 .rela.text.getcfg_vddio_val_ofs
                0x0000000010014bd0        0x0 Output\obj\platform\bsp\bsp_cm.o
 .rela.text.get_cur_vddio_vol
                0x0000000010014bd0        0x0 Output\obj\platform\bsp\bsp_cm.o
 .rela.text.vddio_voltage_update
                0x0000000010014bd0        0x0 Output\obj\platform\bsp\bsp_cm.o
 .rela.text.vddio_voltage_user_cfg
                0x0000000010014bd0        0x0 Output\obj\platform\bsp\bsp_cm.o
 .rela.text.vddio_voltage_configure
                0x0000000010014bd0        0x0 Output\obj\platform\bsp\bsp_cm.o
 .rela.text.pmu_voltage_configure
                0x0000000010014bd0        0x0 Output\obj\platform\bsp\bsp_cm.o
 .rela.text.pmu_init
                0x0000000010014bd0        0x0 Output\obj\platform\bsp\bsp_cm.o
 .rela.text.uart0_isr_init
                0x0000000010014bd0        0x0 Output\obj\platform\bsp\bsp_cm.o
 .rela.text.sd0_irq_init
                0x0000000010014bd0        0x0 Output\obj\platform\bsp\bsp_cm.o
 .rela.text.tkey_irq_init
                0x0000000010014bd0        0x0 Output\obj\platform\bsp\bsp_cm.o
 .rela.text.freqdet_irq_init
                0x0000000010014bd0        0x0 Output\obj\platform\bsp\bsp_cm.o
 .rela.text.pwm_irq_init
                0x0000000010014bd0        0x0 Output\obj\platform\bsp\bsp_cm.o
 .rela.text.midi_irq_init
                0x0000000010014bd0        0x0 Output\obj\platform\bsp\bsp_cm.o
 .rela.text.sys_clk
                0x0000000010014bd0        0x0 Output\obj\platform\bsp\bsp_cm.o
 .rela.text.update_sd0baud
                0x0000000010014bd0        0x0 Output\obj\platform\bsp\bsp_cm.o
 .rela.text.sd_disk_init
                0x0000000010014bd0        0x0 Output\obj\platform\bsp\bsp_cm.o
 .rela.text.sd_soft_detect
                0x0000000010014bd0        0x0 Output\obj\platform\bsp\bsp_cm.o
 .rela.text.sd0_init
                0x0000000010014bd0        0x0 Output\obj\platform\bsp\bsp_cm.o
 .rela.text.sd0_stop
                0x0000000010014bd0        0x0 Output\obj\platform\bsp\bsp_cm.o
 .rela.text.sd0_read
                0x0000000010014bd0        0x0 Output\obj\platform\bsp\bsp_cm.o
 .rela.text.sd0_read_start
                0x0000000010014bd0        0x0 Output\obj\platform\bsp\bsp_cm.o
 .rela.text.sd0_read_kick
                0x0000000010014bd0        0x0 Output\obj\platform\bsp\bsp_cm.o
 .rela.text.sd0_read_wait
                0x0000000010014bd0        0x0 Output\obj\platform\bsp\bsp_cm.o
 .rela.text.sd0_write
                0x0000000010014bd0        0x0 Output\obj\platform\bsp\bsp_cm.o
 .rela.text.sd0_write_start
                0x0000000010014bd0        0x0 Output\obj\platform\bsp\bsp_cm.o
 .rela.text.sd0_write_kick
                0x0000000010014bd0        0x0 Output\obj\platform\bsp\bsp_cm.o
 .rela.text.sd0_write_wait
                0x0000000010014bd0        0x0 Output\obj\platform\bsp\bsp_cm.o
 .rela.text.sd0_go_idle_state
                0x0000000010014bd0        0x0 Output\obj\platform\bsp\bsp_cm.o
 .rela.text.func.music
                0x0000000010014bd0        0x0 Output\obj\platform\bsp\bsp_cm.o
 .rela.text.msynth_note_on
                0x0000000010014bd0        0x0 Output\obj\platform\bsp\bsp_cm.o
 .rela.text.AudioCallback
                0x0000000010014bd0        0x0 Output\obj\platform\bsp\bsp_cm.o
 .rela.text.vmidi_res_play_kick
                0x0000000010014bd0        0x0 Output\obj\platform\bsp\bsp_cm.o
 .rela.text.vmidi_song_play_kick
                0x0000000010014bd0        0x0 Output\obj\platform\bsp\bsp_cm.o
 .rela.text.midi_song_play_kick
                0x0000000010014bd0        0x0 Output\obj\platform\bsp\bsp_cm.o
 .rela.text.midi_synth.init
                0x0000000010014bd0        0x0 Output\obj\platform\bsp\bsp_cm.o
 .rela.text.mmem_get_events
                0x0000000010014bd0        0x0 Output\obj\platform\bsp\bsp_cm.o
 .rela.text.midi_fifo_decode
                0x0000000010014bd0        0x0 Output\obj\platform\bsp\bsp_cm.o
 .rela.text.midi_decode_event_norm
                0x0000000010014bd0        0x0 Output\obj\platform\bsp\bsp_cm.o
 .rela.text.midi_okon_mode_a
                0x0000000010014bd0        0x0 Output\obj\platform\bsp\bsp_cm.o
 .rela.text.midi_okon_mode_b
                0x0000000010014bd0        0x0 Output\obj\platform\bsp\bsp_cm.o
 .rela.text.midi_okon_mode_c
                0x0000000010014bd0        0x0 Output\obj\platform\bsp\bsp_cm.o
 .rela.text.midi_search_track_channel
                0x0000000010014bd0        0x0 Output\obj\platform\bsp\bsp_cm.o
 .rela.text.midi_track_init
                0x0000000010014bd0        0x0 Output\obj\platform\bsp\bsp_cm.o
 .rela.text.midi_file_info_init
                0x0000000010014bd0        0x0 Output\obj\platform\bsp\bsp_cm.o
 .rela.text.mmem_init
                0x0000000010014bd0        0x0 Output\obj\platform\bsp\bsp_cm.o
 .rela.text     0x0000000010014bd0        0x0 Output\obj\platform\bsp\bsp_cm.o
 .rela.esbc.text.bits
                0x0000000010014bd0        0x0 Output\obj\platform\bsp\bsp_cm.o
 .rela.esbc.text.ld8a
                0x0000000010014bd0        0x0 Output\obj\platform\bsp\bsp_cm.o
 .rela.esbc.text.lsp
                0x0000000010014bd0        0x0 Output\obj\platform\bsp\bsp_cm.o
 .rela.esbc.text.post
                0x0000000010014bd0        0x0 Output\obj\platform\bsp\bsp_cm.o
 .rela.esbc.text.agc
                0x0000000010014bd0        0x0 Output\obj\platform\bsp\bsp_cm.o
 .rela.esbc.text.asm.post_pro
                0x0000000010014bd0        0x0 Output\obj\platform\bsp\bsp_cm.o
 .rela.esbc.text.asm.pred
                0x0000000010014bd0        0x0 Output\obj\platform\bsp\bsp_cm.o
 .rela.text.lsbc.proc
                0x0000000010014bd0        0x0 Output\obj\platform\bsp\bsp_cm.o
 .rela.text.lsbc.deci
                0x0000000010014bd0        0x0 Output\obj\platform\bsp\bsp_cm.o
 .rela.text.lsbc.imdct
                0x0000000010014bd0        0x0 Output\obj\platform\bsp\bsp_cm.o
 .rela.text.lsbc.windows
                0x0000000010014bd0        0x0 Output\obj\platform\bsp\bsp_cm.o
 .rela.text.mp3dec.layer3.huffdec
                0x0000000010014bd0        0x0 Output\obj\platform\bsp\bsp_cm.o
 .rela.text.mp3dec.layer3.decode
                0x0000000010014bd0        0x0 Output\obj\platform\bsp\bsp_cm.o
 .rela.text.mp3dec.dec
                0x0000000010014bd0        0x0 Output\obj\platform\bsp\bsp_cm.o
 .rela.wavdec.code
                0x0000000010014bd0        0x0 Output\obj\platform\bsp\bsp_cm.o
 .rela.esbc.text.decgain
                0x0000000010014bd0        0x0 Output\obj\platform\bsp\bsp_cm.o
 .rela.text.pitch
                0x0000000010014bd0        0x0 Output\obj\platform\bsp\bsp_cm.o
                0x0000000010014bd0        0x4 LONG 0x0
                0x0000000010014c00                . = ALIGN (0x200)
 *fill*         0x0000000010014bd4       0x2c 

.com_periph.rtc.alarm_set
                0x0000000010014c00        0x8
 .com_periph.rtc.alarm_set
                0x0000000010014c00        0x8 Output\obj\platform\bsp\bsp_rtc.o
                0x0000000010014c00                rtc_set_alarm

.com_periph.rtc.alarm_get
                0x0000000010014c08        0x8
 .com_periph.rtc.alarm_get
                0x0000000010014c08        0x8 Output\obj\platform\bsp\bsp_rtc.o
                0x0000000010014c08                rtc_get_alarm

.stack          0x0000000000010400      0x400
                0x0000000000010400                __irq_stack_start = .
                0x0000000000000400                . = 0x400
 *fill*         0x0000000000010400      0x400 
                0x0000000000010800                __irq_stack = .
                0x0000000000000400                __irq_stack_size = (__irq_stack - __irq_stack_start)

.bss            0x0000000000010800      0x360
                0x0000000000010800                __bss_start = .
 *(COMMON)
 COMMON         0x0000000000010800        0xa Output\obj\platform\bsp\bsp_dac.o
                0x0000000000010800                dac_dvol_table
                0x0000000000010804                soft_fade
 *fill*         0x000000000001080a        0x2 
 COMMON         0x000000000001080c       0x20 Output\obj\platform\bsp\bsp_sys.o
                0x000000000001080c                xcfg_cb
 *(.bss*)
 .bss.key_press_count
                0x000000000001082c        0xc Output\obj\projects\standard\port\port_init.o
                0x000000000001082c                key_press_count
 .bss.sys       0x0000000000010838       0x18 ..\..\platform\libs\libplatform.a(main.o)
                0x0000000000010838                sys
 .bss.msc_mp3_vmp3_link1
                0x0000000000010850        0xc ..\..\platform\libs\libplatform.a(music_res.o)
                0x0000000000010850                msc_mp3_vmp3_link1
 .bss           0x000000000001085c       0x2c ..\..\platform\libs\libcodecs.a(wavdec.o)
                0x000000000001085c                mav_init
                0x0000000000010868                pitch_cb
 *(.sbss*)
 .sbss.fadeStepTime.6171
                0x0000000000010888        0x4 Output\obj\platform\bsp\bsp_dac.o
 .sbss.vbat_bak.6161
                0x000000000001088c        0x2 Output\obj\platform\modules\key\key_scan.o
 *fill*         0x000000000001088e        0x2 
 .sbss.vio_fkick
                0x0000000000010890        0x4 Output\obj\platform\modules\key\key_scan.o
                0x0000000000010890                vio_fkick
 .sbss.cycle_play_flag
                0x0000000000010894        0x1 Output\obj\projects\standard\functions\func.o
                0x0000000000010894                cycle_play_flag
 .sbss.filckering_flag
                0x0000000000010895        0x1 Output\obj\projects\standard\functions\func.o
                0x0000000000010895                filckering_flag
 .sbss.filckering_times
                0x0000000000010896        0x1 Output\obj\projects\standard\functions\func.o
                0x0000000000010896                filckering_times
 .sbss.key_scan_flag
                0x0000000000010897        0x1 Output\obj\projects\standard\functions\func.o
                0x0000000000010897                key_scan_flag
 .sbss.leaf_last_times
                0x0000000000010898        0x4 Output\obj\projects\standard\functions\func.o
                0x0000000000010898                leaf_last_times
 .sbss.max_scores
                0x000000000001089c        0x2 Output\obj\projects\standard\functions\func.o
                0x000000000001089c                max_scores
 .sbss.pwroff_count_flag
                0x000000000001089e        0x1 Output\obj\projects\standard\functions\func.o
                0x000000000001089e                pwroff_count_flag
 .sbss.pwroff_flag
                0x000000000001089f        0x1 Output\obj\projects\standard\functions\func.o
                0x000000000001089f                pwroff_flag
 .sbss.real_time_scores
                0x00000000000108a0        0x2 Output\obj\projects\standard\functions\func.o
                0x00000000000108a0                real_time_scores
 .sbss.reverse_count.6218
                0x00000000000108a2        0x2 Output\obj\projects\standard\functions\func.o
 .sbss.seg_display_flag
                0x00000000000108a4        0x1 Output\obj\projects\standard\functions\func.o
                0x00000000000108a4                seg_display_flag
 *fill*         0x00000000000108a5        0x3 
 .sbss.ticks.6129
                0x00000000000108a8        0x4 Output\obj\projects\standard\functions\func.o
 .sbss.wakeup_flag.6254
                0x00000000000108ac        0x1 Output\obj\projects\standard\functions\func.o
 .sbss.dac_classd_mode
                0x00000000000108ad        0x1 Output\obj\projects\standard\plugin\plugin.o
                0x00000000000108ad                dac_classd_mode
 .sbss.dac_drc_en
                0x00000000000108ae        0x1 Output\obj\projects\standard\plugin\plugin.o
                0x00000000000108ae                dac_drc_en
 .sbss.dac_soft_eq_en
                0x00000000000108af        0x1 Output\obj\projects\standard\plugin\plugin.o
                0x00000000000108af                dac_soft_eq_en
 .sbss.dac_soft_gain
                0x00000000000108b0        0x1 Output\obj\projects\standard\plugin\plugin.o
                0x00000000000108b0                dac_soft_gain
 .sbss.lvd_irq_en
                0x00000000000108b1        0x1 Output\obj\projects\standard\plugin\plugin.o
                0x00000000000108b1                lvd_irq_en
 .sbss.music_mp3_long_buffer
                0x00000000000108b2        0x1 Output\obj\projects\standard\plugin\plugin.o
                0x00000000000108b2                music_mp3_long_buffer
 *fill*         0x00000000000108b3        0x1 
 .sbss.current_key_state
                0x00000000000108b4        0x6 Output\obj\projects\standard\port\port_init.o
                0x00000000000108b4                current_key_state
 *fill*         0x00000000000108ba        0x2 
 .sbss.display_register
                0x00000000000108bc        0x4 Output\obj\projects\standard\port\port_init.o
                0x00000000000108bc                display_register
 .sbss.gnd_count_flag
                0x00000000000108c0        0x1 Output\obj\projects\standard\port\port_init.o
                0x00000000000108c0                gnd_count_flag
 *fill*         0x00000000000108c1        0x3 
 .sbss.key_processed
                0x00000000000108c4        0x6 Output\obj\projects\standard\port\port_init.o
                0x00000000000108c4                key_processed
 .sbss.key_return
                0x00000000000108ca        0x2 Output\obj\projects\standard\port\port_init.o
                0x00000000000108ca                key_return
 .sbss.last_key_state
                0x00000000000108cc        0x6 Output\obj\projects\standard\port\port_init.o
                0x00000000000108cc                last_key_state
 .sbss.max_score_display_count_interval
                0x00000000000108d2        0x2 Output\obj\projects\standard\port\port_init.o
                0x00000000000108d2                max_score_display_count_interval
 .sbss.dac_cb   0x00000000000108d4        0x8 ..\..\platform\libs\libplatform.a(dac.o)
                0x00000000000108d4                dac_cb
 .sbss.mp3_loop_end
                0x00000000000108dc        0x2 ..\..\platform\libs\libplatform.a(music_res.o)
                0x00000000000108dc                mp3_loop_end
 .sbss.mp3_loop_start
                0x00000000000108de        0x2 ..\..\platform\libs\libplatform.a(music_res.o)
                0x00000000000108de                mp3_loop_start
 .sbss.spiflash_ex_read
                0x00000000000108e0        0x4 ..\..\platform\libs\libplatform.a(music_res.o)
                0x00000000000108e0                spiflash_ex_read
 .sbss.spiflash_ex_wav_read
                0x00000000000108e4        0x4 ..\..\platform\libs\libplatform.a(music_res.o)
                0x00000000000108e4                spiflash_ex_wav_read
 .sbss.key_cnt_ex
                0x00000000000108e8        0x2 ..\..\platform\libs\libplatform.a(key.o)
 .sbss.key_up_ex
                0x00000000000108ea        0x2 ..\..\platform\libs\libplatform.a(key.o)
 .sbss.vddio_cur_sel
                0x00000000000108ec        0x1 ..\..\platform\libs\libplatform.a(pmu.o)
                0x00000000000108ec                vddio_cur_sel
 *fill*         0x00000000000108ed        0x3 
 .sbss.ms_tick  0x00000000000108f0        0x4 ..\..\platform\libs\libplatform.a(interrupt.o)
                0x00000000000108f0                ms_tick
 .sbss.sys_trim
                0x00000000000108f4        0x8 ..\..\platform\libs\libplatform.a(voltage_trim.o)
                0x00000000000108f4                sys_trim
 .sbss          0x00000000000108fc        0x4 ..\..\platform\libs\libcodecs.a(esbc.o)
                0x00000000000108fc                esbc_fread
 .sbss          0x0000000000010900        0x4 ..\..\platform\libs\libcodecs.a(lsbc.o)
                0x0000000000010900                lsbcstart
                0x0000000000010901                lsbcend
                0x0000000000010902                lastflag
 .sbss          0x0000000000010904        0xe ..\..\platform\libs\libcodecs.a(wavdec.o)
                0x0000000000010908                wav_mix
                0x0000000000010910                last_val
 *fill*         0x0000000000010912        0x6 
 .sbss          0x0000000000010918        0x8 ..\..\platform\libs\libcodecs.a(voice_changer_fixed.o)
                0x0000000000010918                sum_pitch
 *(.buf*)
 .buf.key.cb    0x0000000000010920       0x14 Output\obj\platform\modules\key\key_scan.o
                0x0000000000010920                adc_cb
 .buf.func_cb   0x0000000000010934        0xc Output\obj\projects\standard\functions\func.o
                0x0000000000010934                func_cb
 .buf.bsp.sys_cb
                0x0000000000010940       0x2c Output\obj\projects\standard\port\port_init.o
                0x0000000000010940                sys_cb
 .buf.key       0x000000000001096c       0x2e Output\obj\projects\standard\port\port_key.o
                0x000000000001096c                iokey_gpio
                0x0000000000010994                iokey_num
 *fill*         0x000000000001099a        0x2 
 .buf.spires    0x000000000001099c       0x24 ..\..\platform\libs\libplatform.a(music_res.o)
                0x000000000001099c                spires_cb
 .buf.wavres1   0x00000000000109c0       0x24 ..\..\platform\libs\libplatform.a(music_res.o)
                0x00000000000109c0                wavres_cb_1
 .buf.key.cb    0x00000000000109e4       0x20 ..\..\platform\libs\libplatform.a(key.o)
 .buf.deccom    0x0000000000010a04       0x28 ..\..\platform\libs\libcodecs.a(codecs_com.o)
                0x0000000000010a04                codec_info
                0x0000000000010a08                qskip
 *(.huart_buf)
 *(.cm_buf)
 .cm_buf        0x0000000000010a2c      0x134 ..\..\platform\libs\libplatform.a(cm.o)
                0x0000000000010b60                __bss_end = .
                0x0000000000000360                __bss_size = (__bss_end - __bss_start)

.bss1           0x0000000000070000      0xa70
                0x0000000000070000                __bss1_start = .
 *(.m_buf*)
 *(.gpdbuf*)
 .gpdbuf.dac_dma
                0x0000000000070000      0x300 Output\obj\platform\bsp\bsp_dac.o
                0x0000000000070000                gpdma_buf
 *(.drc_buf*)
 *(.avio_buf)
 .avio_buf      0x0000000000070300      0x22c ..\..\platform\libs\libcodecs.a(aviobuf.o)
                0x0000000000070300                avio_buf
 *(.uart_buf)
 *(.eq_buf)
 *(.msc_buf)
 .msc_buf       0x000000000007052c       0x54 ..\..\platform\libs\libplatform.a(music.o)
                0x000000000007052c                music_cb
                0x000000000007053c                lay0_cb
                0x0000000000070560                lay1_cb
 *(.wav_buf)
 .wav_buf       0x0000000000070580      0x4f0 Output\obj\platform\bsp\bsp_music.o
                0x0000000000070580                wav_layer1
 *(.lfs_buf*)
 *(.mav_buf)
                0x0000000000070a70                __bss1_end = .
                0x0000000000000a70                __bss1_size = (__bss1_end - __bss1_start)

.aram_mp3       0x0000000000012a00     0x257a
 *(.mp3_decram_buf*)
 .mp3_decram_buf
                0x0000000000012a00      0xe68 ..\..\platform\libs\libcodecs.a(layer3.o)
                0x0000000000012a00                dct_tmp_data
                0x0000000000012ad8                last_mixed
                0x0000000000012ae0                last_block_type
                0x0000000000012ae8                overlap_buf
                0x0000000000012f68                xr
 .mp3_decram_buf.ext
                0x0000000000013868        0x1 ..\..\platform\libs\libcodecs.a(layer3.o)
                0x0000000000013868                decode_channel_cur
 .mp3_decram_buf.ext1
                0x0000000000013869        0x1 ..\..\platform\libs\libcodecs.a(layer3.o)
                0x0000000000013869                vmp3_dec_enable
 *fill*         0x000000000001386a        0x2 
 .mp3_decram_buf.temp
                0x000000000001386c      0x900 ..\..\platform\libs\libcodecs.a(layer3.o)
                0x000000000001386c                mad_xr_temp
 .mp3_decram_buf
                0x000000000001416c      0x80c ..\..\platform\libs\libcodecs.a(synth.o)
                0x000000000001416c                Synth
 *(.mp3buf.dec)
 .mp3buf.dec    0x0000000000014978      0x602 ..\..\platform\libs\libcodecs.a(mp3_dec.o)
                0x0000000000014978                mp3_frame
                0x0000000000014b4c                mp3_ctx
                0x0000000000014b74                mp3_bitpool

.aram_esbc      0x0000000000014600      0x948
 *(.esbc_buf*)
 .esbc_buf      0x0000000000014600      0x868 Output\obj\platform\bsp\bsp_music.o
                0x0000000000014600                esbc_dec_cb
 .esbc_buf      0x0000000000014e68       0x16 ..\..\platform\libs\libcodecs.a(esbc.o)
 .esbc_buf      0x0000000000014e7e        0x2 ..\..\platform\libs\libcodecs.a(util.o)
                0x0000000000014e7e                random_seed
 .esbc_buf      0x0000000000014e80       0xc8 ..\..\platform\libs\libcodecs.a(cod_ld8a.o)
                0x0000000000014e80                syn_tmp

.aram_lsbc      0x0000000000012600     0x28d8
 *(.lsbc_buf*)
 .lsbc_buf.dec_sta
                0x0000000000012600        0x1 ..\..\platform\libs\libplatform.a(music.o)
 *fill*         0x0000000000012601        0x3 
 .lsbc_buf.pcm_buf
                0x0000000000012604      0x798 ..\..\platform\libs\libplatform.a(music.o)
                0x0000000000012604                lsbc_pcm_cache
                0x0000000000012c04                cbuf_lsbc
                0x0000000000012c1c                lsbc_obuf
 .lsbc_buf.ctx  0x0000000000012d9c      0xa78 ..\..\platform\libs\libcodecs.a(lsbc.o)
                0x0000000000012d9c                lsbc_avio_pb
                0x0000000000012dc4                lsbcctx_cb
 .lsbc_buf.packet
                0x0000000000013814      0x800 ..\..\platform\libs\libcodecs.a(lsbc.o)
                0x0000000000013814                packet_buf
 .lsbc_buf.coef0
                0x0000000000014014      0x800 ..\..\platform\libs\libcodecs.a(lsbcdeci.o)
                0x0000000000014014                coefsarray0
 .lsbc_buf.exp_bit
                0x0000000000014814       0x40 ..\..\platform\libs\libcodecs.a(lsbcdeci.o)
                0x0000000000014814                exp_power_bit
 .lsbc_buf.exp_fix
                0x0000000000014854       0x40 ..\..\platform\libs\libcodecs.a(lsbcdeci.o)
                0x0000000000014854                exp_power_fix
 .lsbc_buf.overlap
                0x0000000000014894      0x400 ..\..\platform\libs\libcodecs.a(lsbcdeci.o)
                0x0000000000014894                overlap
 .lsbc_buf.imdct_cb
                0x0000000000014c94       0x20 ..\..\platform\libs\libcodecs.a(mdct.o)
                0x0000000000014c94                imdct_cb
 .lsbc_buf.pcm  0x0000000000014cb4      0x200 ..\..\platform\libs\libcodecs.a(windows.o)
                0x0000000000014cb4                lsbc_pcm_obuf
 .lsbc_buf.wincb
                0x0000000000014eb4       0x20 ..\..\platform\libs\libcodecs.a(windows.o)
                0x0000000000014eb4                win_cb
 .lsbc_buf.huff
                0x0000000000014ed4        0x4 ..\..\platform\libs\libcodecs.a(lsbc_huffman.o)
                0x0000000000014ed4                lsbc_huff_tbl

.aram_upd
 *(.upd_buf*)
 *(.uart_upd_buf*)

.aram_midi
 *(.midi_buf*)
 *(.gsf_buf*)

.aram_pitch     0x0000000000012a00      0x8c6
 *(.pitch_buf)
 .pitch_buf     0x0000000000012a00      0x8c6 ..\..\platform\libs\libcodecs.a(voice_changer_fixed.o)
                0x0000000000012a00                pitch_st
                0x000000000001312c                pitch_hanning_tbl
                0x000000000000f400                __bank_size = SIZEOF (.flash)
                0x0000000010000200                __comm_lma = LOADADDR (.comm)
                0x0000000000000e00                __comm_size = SIZEOF (.comm)
                0x0000000010001000                __pdn_comm_lma = LOADADDR (.pdn_comm)
                0x0000000000000a00                __pdn_comm_size = SIZEOF (.pdn_comm)
                0x0000000010001a00                __aram_msc_comm_lma = LOADADDR (.aram_msc_comm)
                0x0000000000000200                __aram_msc_comm_size = SIZEOF (.aram_msc_comm)
                0x0000000010001c00                __aram_mp3_comm_lma = LOADADDR (.aram_mp3_comm)
                0x0000000000000c00                __aram_mp3_comm_size = SIZEOF (.aram_mp3_comm)
                0x0000000010002800                __aram_esbc_comm_lma = LOADADDR (.aram_esbc_comm)
                0x0000000000002800                __aram_esbc_comm_size = SIZEOF (.aram_esbc_comm)
                0x0000000010005000                __aram_lsbc_comm_lma = LOADADDR (.aram_lsbc_comm)
                0x0000000000000800                __aram_lsbc_comm_size = SIZEOF (.aram_lsbc_comm)
                0x0000000010005800                __aram_midi_comm_lma = LOADADDR (.aram_midi_comm)
                0x0000000000000000                __aram_midi_comm_size = SIZEOF (.aram_midi_comm)
LOAD ..\..\platform\libs\libplatform.a
LOAD ..\..\platform\libs\libdrivers.a
LOAD ..\..\platform\libs\libcodecs.a
LOAD ..\..\platform\libs\libfft.a
OUTPUT(Output\bin\app.rv32 elf32-littleriscv)

.comment        0x0000000000000000       0x23
 .comment       0x0000000000000000       0x11 Output\obj\platform\bsp\bsp_clk.o
                                         0x12 (size before relaxing)
 .comment       0x0000000000000011       0x12 Output\obj\platform\bsp\bsp_cm.o
 .comment       0x0000000000000011       0x12 Output\obj\platform\bsp\bsp_dac.o
 .comment       0x0000000000000011       0x12 Output\obj\platform\bsp\bsp_music.o
 .comment       0x0000000000000011       0x12 Output\obj\platform\bsp\bsp_param.o
 .comment       0x0000000000000011       0x12 Output\obj\platform\bsp\bsp_rtc.o
 .comment       0x0000000000000011       0x12 Output\obj\platform\bsp\bsp_sys.o
 .comment       0x0000000000000011       0x12 Output\obj\platform\libs\strong_symbol.o
 .comment       0x0000000000000011       0x12 Output\obj\platform\modules\key\key_scan.o
 .comment       0x0000000000000011       0x12 Output\obj\projects\standard\config.o
 .comment       0x0000000000000011       0x12 Output\obj\projects\standard\functions\func.o
 .comment       0x0000000000000011       0x12 Output\obj\projects\standard\functions\func_lowpwr.o
 .comment       0x0000000000000011       0x12 Output\obj\projects\standard\main.o
 .comment       0x0000000000000011       0x12 Output\obj\projects\standard\plugin\plugin.o
 .comment       0x0000000000000011       0x12 Output\obj\projects\standard\port\port_init.o
 .comment       0x0000000000000011       0x12 Output\obj\projects\standard\port\port_key.o
 .comment       0x0000000000000011       0x12 ..\..\platform\libs\libplatform.a(audio.o)
                                         0x13 (size before relaxing)
 .comment       0x0000000000000023       0x13 ..\..\platform\libs\libplatform.a(dac.o)
 .comment       0x0000000000000023       0x13 ..\..\platform\libs\libplatform.a(gpdma.o)
 .comment       0x0000000000000023       0x13 ..\..\platform\libs\libplatform.a(cm.o)
 .comment       0x0000000000000023       0x13 ..\..\platform\libs\libplatform.a(os_flash.o)
 .comment       0x0000000000000023       0x13 ..\..\platform\libs\libplatform.a(xcfg.o)
 .comment       0x0000000000000023       0x13 ..\..\platform\libs\libplatform.a(main.o)
 .comment       0x0000000000000023       0x13 ..\..\platform\libs\libplatform.a(codecs_pcm.o)
 .comment       0x0000000000000023       0x13 ..\..\platform\libs\libplatform.a(music.o)
 .comment       0x0000000000000023       0x13 ..\..\platform\libs\libplatform.a(music_res.o)
 .comment       0x0000000000000023       0x13 ..\..\platform\libs\libplatform.a(gpio.o)
 .comment       0x0000000000000023       0x13 ..\..\platform\libs\libplatform.a(key.o)
 .comment       0x0000000000000023       0x13 ..\..\platform\libs\libplatform.a(pmu.o)
 .comment       0x0000000000000023       0x13 ..\..\platform\libs\libplatform.a(saradc.o)
 .comment       0x0000000000000023       0x13 ..\..\platform\libs\libplatform.a(buffer.o)
 .comment       0x0000000000000023       0x13 ..\..\platform\libs\libplatform.a(debug.o)
 .comment       0x0000000000000023       0x13 ..\..\platform\libs\libplatform.a(interrupt.o)
 .comment       0x0000000000000023       0x13 ..\..\platform\libs\libplatform.a(sys.o)
 .comment       0x0000000000000023       0x13 ..\..\platform\libs\libplatform.a(sys_clk.o)
 .comment       0x0000000000000023       0x13 ..\..\platform\libs\libplatform.a(voltage_trim.o)
 .comment       0x0000000000000023       0x13 ..\..\platform\libs\libplatform.a(weak_symbol.o)
 .comment       0x0000000000000023       0x13 ..\..\platform\libs\libcodecs.a(aviobuf.o)
 .comment       0x0000000000000023       0x13 ..\..\platform\libs\libcodecs.a(codecs_com.o)
 .comment       0x0000000000000023       0x13 ..\..\platform\libs\libcodecs.a(esbc.o)
 .comment       0x0000000000000023       0x13 ..\..\platform\libs\libcodecs.a(bits.o)
 .comment       0x0000000000000023       0x13 ..\..\platform\libs\libcodecs.a(dec_ld8a.o)
 .comment       0x0000000000000023       0x13 ..\..\platform\libs\libcodecs.a(lpcfunc.o)
 .comment       0x0000000000000023       0x13 ..\..\platform\libs\libcodecs.a(lspdec.o)
 .comment       0x0000000000000023       0x13 ..\..\platform\libs\libcodecs.a(lspgetq.o)
 .comment       0x0000000000000023       0x13 ..\..\platform\libs\libcodecs.a(post_pro.o)
 .comment       0x0000000000000023       0x13 ..\..\platform\libs\libcodecs.a(postfilt.o)
 .comment       0x0000000000000023       0x13 ..\..\platform\libs\libcodecs.a(tab_ld8a.o)
 .comment       0x0000000000000023       0x13 ..\..\platform\libs\libcodecs.a(util.o)
 .comment       0x0000000000000023       0x13 ..\..\platform\libs\libcodecs.a(lsbc.o)
 .comment       0x0000000000000023       0x13 ..\..\platform\libs\libcodecs.a(lsbcdeci.o)
 .comment       0x0000000000000023       0x13 ..\..\platform\libs\libcodecs.a(lsbcfixed.o)
 .comment       0x0000000000000023       0x13 ..\..\platform\libs\libcodecs.a(mdct.o)
 .comment       0x0000000000000023       0x13 ..\..\platform\libs\libcodecs.a(windows.o)
 .comment       0x0000000000000023       0x13 ..\..\platform\libs\libcodecs.a(layer3.o)
 .comment       0x0000000000000023       0x13 ..\..\platform\libs\libcodecs.a(mp3_dec.o)
 .comment       0x0000000000000023       0x13 ..\..\platform\libs\libcodecs.a(synth.o)
 .comment       0x0000000000000023       0x13 ..\..\platform\libs\libcodecs.a(wavdec.o)
 .comment       0x0000000000000023       0x13 ..\..\platform\libs\libcodecs.a(codec.o)
 .comment       0x0000000000000023       0x13 ..\..\platform\libs\libcodecs.a(cod_ld8a.o)
 .comment       0x0000000000000023       0x13 ..\..\platform\libs\libcodecs.a(de_acelp.o)
 .comment       0x0000000000000023       0x13 ..\..\platform\libs\libcodecs.a(dec_gain.o)
 .comment       0x0000000000000023       0x13 ..\..\platform\libs\libcodecs.a(dec_lag3.o)
 .comment       0x0000000000000023       0x13 ..\..\platform\libs\libcodecs.a(dspfunc.o)
 .comment       0x0000000000000023       0x13 ..\..\platform\libs\libcodecs.a(gainpred.o)
 .comment       0x0000000000000023       0x13 ..\..\platform\libs\libcodecs.a(asf.o)
 .comment       0x0000000000000023       0x13 ..\..\platform\libs\libcodecs.a(bitstream.o)
 .comment       0x0000000000000023       0x13 ..\..\platform\libs\libcodecs.a(lsbc_huffman.o)
 .comment       0x0000000000000023       0x13 ..\..\platform\libs\libcodecs.a(bit.o)
 .comment       0x0000000000000023       0x13 ..\..\platform\libs\libcodecs.a(frame.o)
 .comment       0x0000000000000023       0x13 ..\..\platform\libs\libcodecs.a(huffman.o)
 .comment       0x0000000000000023       0x13 ..\..\platform\libs\libcodecs.a(voice_changer_fixed.o)
 .comment       0x0000000000000023       0x13 ..\..\platform\libs\libcodecs.a(adpcmdec.o)

.riscv.attributes
                0x0000000000000000      0xd32
 .riscv.attributes
                0x0000000000000000       0x32 ..\..\platform\libs\libplatform.a(audio.o)
 .riscv.attributes
                0x0000000000000032       0x32 ..\..\platform\libs\libplatform.a(dac.o)
 .riscv.attributes
                0x0000000000000064       0x32 ..\..\platform\libs\libplatform.a(gpdma.o)
 .riscv.attributes
                0x0000000000000096       0x32 ..\..\platform\libs\libplatform.a(cm.o)
 .riscv.attributes
                0x00000000000000c8       0x32 ..\..\platform\libs\libplatform.a(os_flash.o)
 .riscv.attributes
                0x00000000000000fa       0x32 ..\..\platform\libs\libplatform.a(xcfg.o)
 .riscv.attributes
                0x000000000000012c       0x32 ..\..\platform\libs\libplatform.a(main.o)
 .riscv.attributes
                0x000000000000015e       0x32 ..\..\platform\libs\libplatform.a(codecs_pcm.o)
 .riscv.attributes
                0x0000000000000190       0x32 ..\..\platform\libs\libplatform.a(music.o)
 .riscv.attributes
                0x00000000000001c2       0x32 ..\..\platform\libs\libplatform.a(music_res.o)
 .riscv.attributes
                0x00000000000001f4       0x32 ..\..\platform\libs\libplatform.a(gpio.o)
 .riscv.attributes
                0x0000000000000226       0x32 ..\..\platform\libs\libplatform.a(key.o)
 .riscv.attributes
                0x0000000000000258       0x32 ..\..\platform\libs\libplatform.a(pmu.o)
 .riscv.attributes
                0x000000000000028a       0x32 ..\..\platform\libs\libplatform.a(saradc.o)
 .riscv.attributes
                0x00000000000002bc       0x32 ..\..\platform\libs\libplatform.a(buffer.o)
 .riscv.attributes
                0x00000000000002ee       0x32 ..\..\platform\libs\libplatform.a(debug.o)
 .riscv.attributes
                0x0000000000000320       0x32 ..\..\platform\libs\libplatform.a(interrupt.o)
 .riscv.attributes
                0x0000000000000352       0x30 ..\..\platform\libs\libplatform.a(s_sys.o)
 .riscv.attributes
                0x0000000000000382       0x32 ..\..\platform\libs\libplatform.a(sys.o)
 .riscv.attributes
                0x00000000000003b4       0x32 ..\..\platform\libs\libplatform.a(sys_clk.o)
 .riscv.attributes
                0x00000000000003e6       0x32 ..\..\platform\libs\libplatform.a(voltage_trim.o)
 .riscv.attributes
                0x0000000000000418       0x32 ..\..\platform\libs\libplatform.a(weak_symbol.o)
 .riscv.attributes
                0x000000000000044a       0x32 ..\..\platform\libs\libcodecs.a(aviobuf.o)
 .riscv.attributes
                0x000000000000047c       0x32 ..\..\platform\libs\libcodecs.a(codecs_com.o)
 .riscv.attributes
                0x00000000000004ae       0x32 ..\..\platform\libs\libcodecs.a(esbc.o)
 .riscv.attributes
                0x00000000000004e0       0x32 ..\..\platform\libs\libcodecs.a(bits.o)
 .riscv.attributes
                0x0000000000000512       0x32 ..\..\platform\libs\libcodecs.a(dec_ld8a.o)
 .riscv.attributes
                0x0000000000000544       0x32 ..\..\platform\libs\libcodecs.a(lpcfunc.o)
 .riscv.attributes
                0x0000000000000576       0x32 ..\..\platform\libs\libcodecs.a(lspdec.o)
 .riscv.attributes
                0x00000000000005a8       0x32 ..\..\platform\libs\libcodecs.a(lspgetq.o)
 .riscv.attributes
                0x00000000000005da       0x32 ..\..\platform\libs\libcodecs.a(post_pro.o)
 .riscv.attributes
                0x000000000000060c       0x32 ..\..\platform\libs\libcodecs.a(postfilt.o)
 .riscv.attributes
                0x000000000000063e       0x30 ..\..\platform\libs\libcodecs.a(s_cod_ld8a.o)
 .riscv.attributes
                0x000000000000066e       0x30 ..\..\platform\libs\libcodecs.a(s_dec_ld8a.o)
 .riscv.attributes
                0x000000000000069e       0x30 ..\..\platform\libs\libcodecs.a(s_post_pro.o)
 .riscv.attributes
                0x00000000000006ce       0x30 ..\..\platform\libs\libcodecs.a(s_postfilt.o)
 .riscv.attributes
                0x00000000000006fe       0x30 ..\..\platform\libs\libcodecs.a(s_pred_lt3.o)
 .riscv.attributes
                0x000000000000072e       0x32 ..\..\platform\libs\libcodecs.a(tab_ld8a.o)
 .riscv.attributes
                0x0000000000000760       0x32 ..\..\platform\libs\libcodecs.a(util.o)
 .riscv.attributes
                0x0000000000000792       0x32 ..\..\platform\libs\libcodecs.a(lsbc.o)
 .riscv.attributes
                0x00000000000007c4       0x32 ..\..\platform\libs\libcodecs.a(lsbcdeci.o)
 .riscv.attributes
                0x00000000000007f6       0x32 ..\..\platform\libs\libcodecs.a(lsbcfixed.o)
 .riscv.attributes
                0x0000000000000828       0x32 ..\..\platform\libs\libcodecs.a(mdct.o)
 .riscv.attributes
                0x000000000000085a       0x30 ..\..\platform\libs\libcodecs.a(s_imdct.o)
 .riscv.attributes
                0x000000000000088a       0x30 ..\..\platform\libs\libcodecs.a(s_wmadec.o)
 .riscv.attributes
                0x00000000000008ba       0x32 ..\..\platform\libs\libcodecs.a(windows.o)
 .riscv.attributes
                0x00000000000008ec       0x32 ..\..\platform\libs\libcodecs.a(layer3.o)
 .riscv.attributes
                0x000000000000091e       0x32 ..\..\platform\libs\libcodecs.a(mp3_dec.o)
 .riscv.attributes
                0x0000000000000950       0x30 ..\..\platform\libs\libcodecs.a(s_layer3.o)
 .riscv.attributes
                0x0000000000000980       0x32 ..\..\platform\libs\libcodecs.a(synth.o)
 .riscv.attributes
                0x00000000000009b2       0x32 ..\..\platform\libs\libcodecs.a(wavdec.o)
 .riscv.attributes
                0x00000000000009e4       0x32 ..\..\platform\libs\libcodecs.a(codec.o)
 .riscv.attributes
                0x0000000000000a16       0x32 ..\..\platform\libs\libcodecs.a(cod_ld8a.o)
 .riscv.attributes
                0x0000000000000a48       0x32 ..\..\platform\libs\libcodecs.a(de_acelp.o)
 .riscv.attributes
                0x0000000000000a7a       0x32 ..\..\platform\libs\libcodecs.a(dec_gain.o)
 .riscv.attributes
                0x0000000000000aac       0x32 ..\..\platform\libs\libcodecs.a(dec_lag3.o)
 .riscv.attributes
                0x0000000000000ade       0x32 ..\..\platform\libs\libcodecs.a(dspfunc.o)
 .riscv.attributes
                0x0000000000000b10       0x32 ..\..\platform\libs\libcodecs.a(gainpred.o)
 .riscv.attributes
                0x0000000000000b42       0x32 ..\..\platform\libs\libcodecs.a(asf.o)
 .riscv.attributes
                0x0000000000000b74       0x32 ..\..\platform\libs\libcodecs.a(bitstream.o)
 .riscv.attributes
                0x0000000000000ba6       0x32 ..\..\platform\libs\libcodecs.a(lsbc_huffman.o)
 .riscv.attributes
                0x0000000000000bd8       0x30 ..\..\platform\libs\libcodecs.a(s_windows.o)
 .riscv.attributes
                0x0000000000000c08       0x32 ..\..\platform\libs\libcodecs.a(bit.o)
 .riscv.attributes
                0x0000000000000c3a       0x32 ..\..\platform\libs\libcodecs.a(frame.o)
 .riscv.attributes
                0x0000000000000c6c       0x32 ..\..\platform\libs\libcodecs.a(huffman.o)
 .riscv.attributes
                0x0000000000000c9e       0x32 ..\..\platform\libs\libcodecs.a(voice_changer_fixed.o)
 .riscv.attributes
                0x0000000000000cd0       0x32 ..\..\platform\libs\libcodecs.a(adpcmdec.o)
 .riscv.attributes
                0x0000000000000d02       0x30 ..\..\platform\libs\libcodecs.a(s_voice_changer.o)
